
main:     file format elf64-x86-64


Disassembly of section .init:

0000000000027000 <_init>:
   27000:	f3 0f 1e fa          	endbr64 
   27004:	48 83 ec 08          	sub    $0x8,%rsp
   27008:	48 8b 05 d9 8f 01 00 	mov    0x18fd9(%rip),%rax        # 3ffe8 <__gmon_start__>
   2700f:	48 85 c0             	test   %rax,%rax
   27012:	74 02                	je     27016 <_init+0x16>
   27014:	ff d0                	callq  *%rax
   27016:	48 83 c4 08          	add    $0x8,%rsp
   2701a:	c3                   	retq   

Disassembly of section .plt:

0000000000027020 <.plt>:
   27020:	ff 35 e2 8f 01 00    	pushq  0x18fe2(%rip)        # 40008 <_GLOBAL_OFFSET_TABLE_+0x8>
   27026:	ff 25 e4 8f 01 00    	jmpq   *0x18fe4(%rip)        # 40010 <_GLOBAL_OFFSET_TABLE_+0x10>
   2702c:	0f 1f 40 00          	nopl   0x0(%rax)

0000000000027030 <__isoc99_sscanf@plt>:
   27030:	ff 25 e2 8f 01 00    	jmpq   *0x18fe2(%rip)        # 40018 <__isoc99_sscanf>
   27036:	68 00 00 00 00       	pushq  $0x0
   2703b:	e9 e0 ff ff ff       	jmpq   27020 <.plt>

0000000000027040 <strlen@plt>:
   27040:	ff 25 da 8f 01 00    	jmpq   *0x18fda(%rip)        # 40020 <strlen>
   27046:	68 01 00 00 00       	pushq  $0x1
   2704b:	e9 d0 ff ff ff       	jmpq   27020 <.plt>

0000000000027050 <__asan_register_globals@plt>:
   27050:	ff 25 d2 8f 01 00    	jmpq   *0x18fd2(%rip)        # 40028 <__asan_register_globals>
   27056:	68 02 00 00 00       	pushq  $0x2
   2705b:	e9 c0 ff ff ff       	jmpq   27020 <.plt>

0000000000027060 <free@plt>:
   27060:	ff 25 ca 8f 01 00    	jmpq   *0x18fca(%rip)        # 40030 <free>
   27066:	68 03 00 00 00       	pushq  $0x3
   2706b:	e9 b0 ff ff ff       	jmpq   27020 <.plt>

0000000000027070 <__asan_report_load4@plt>:
   27070:	ff 25 c2 8f 01 00    	jmpq   *0x18fc2(%rip)        # 40038 <__asan_report_load4>
   27076:	68 04 00 00 00       	pushq  $0x4
   2707b:	e9 a0 ff ff ff       	jmpq   27020 <.plt>

0000000000027080 <glfwMakeContextCurrent@plt>:
   27080:	ff 25 ba 8f 01 00    	jmpq   *0x18fba(%rip)        # 40040 <glfwMakeContextCurrent>
   27086:	68 05 00 00 00       	pushq  $0x5
   2708b:	e9 90 ff ff ff       	jmpq   27020 <.plt>

0000000000027090 <strcmp@plt>:
   27090:	ff 25 b2 8f 01 00    	jmpq   *0x18fb2(%rip)        # 40048 <strcmp>
   27096:	68 06 00 00 00       	pushq  $0x6
   2709b:	e9 80 ff ff ff       	jmpq   27020 <.plt>

00000000000270a0 <dlopen@plt>:
   270a0:	ff 25 aa 8f 01 00    	jmpq   *0x18faa(%rip)        # 40050 <dlopen>
   270a6:	68 07 00 00 00       	pushq  $0x7
   270ab:	e9 70 ff ff ff       	jmpq   27020 <.plt>

00000000000270b0 <glfwWindowHint@plt>:
   270b0:	ff 25 a2 8f 01 00    	jmpq   *0x18fa2(%rip)        # 40058 <glfwWindowHint>
   270b6:	68 08 00 00 00       	pushq  $0x8
   270bb:	e9 60 ff ff ff       	jmpq   27020 <.plt>

00000000000270c0 <glfwPollEvents@plt>:
   270c0:	ff 25 9a 8f 01 00    	jmpq   *0x18f9a(%rip)        # 40060 <glfwPollEvents>
   270c6:	68 09 00 00 00       	pushq  $0x9
   270cb:	e9 50 ff ff ff       	jmpq   27020 <.plt>

00000000000270d0 <_ZStlsISt11char_traitsIcEERSt13basic_ostreamIcT_ES5_PKc@plt>:
   270d0:	ff 25 92 8f 01 00    	jmpq   *0x18f92(%rip)        # 40068 <_ZStlsISt11char_traitsIcEERSt13basic_ostreamIcT_ES5_PKc@GLIBCXX_3.4>
   270d6:	68 0a 00 00 00       	pushq  $0xa
   270db:	e9 40 ff ff ff       	jmpq   27020 <.plt>

00000000000270e0 <glfwTerminate@plt>:
   270e0:	ff 25 8a 8f 01 00    	jmpq   *0x18f8a(%rip)        # 40070 <glfwTerminate>
   270e6:	68 0b 00 00 00       	pushq  $0xb
   270eb:	e9 30 ff ff ff       	jmpq   27020 <.plt>

00000000000270f0 <__asan_report_store8@plt>:
   270f0:	ff 25 82 8f 01 00    	jmpq   *0x18f82(%rip)        # 40078 <__asan_report_store8>
   270f6:	68 0c 00 00 00       	pushq  $0xc
   270fb:	e9 20 ff ff ff       	jmpq   27020 <.plt>

0000000000027100 <_ZNSolsEPFRSoS_E@plt>:
   27100:	ff 25 7a 8f 01 00    	jmpq   *0x18f7a(%rip)        # 40080 <_ZNSolsEPFRSoS_E@GLIBCXX_3.4>
   27106:	68 0d 00 00 00       	pushq  $0xd
   2710b:	e9 10 ff ff ff       	jmpq   27020 <.plt>

0000000000027110 <__asan_unregister_globals@plt>:
   27110:	ff 25 72 8f 01 00    	jmpq   *0x18f72(%rip)        # 40088 <__asan_unregister_globals>
   27116:	68 0e 00 00 00       	pushq  $0xe
   2711b:	e9 00 ff ff ff       	jmpq   27020 <.plt>

0000000000027120 <__stack_chk_fail@plt>:
   27120:	ff 25 6a 8f 01 00    	jmpq   *0x18f6a(%rip)        # 40090 <__stack_chk_fail@GLIBC_2.4>
   27126:	68 0f 00 00 00       	pushq  $0xf
   2712b:	e9 f0 fe ff ff       	jmpq   27020 <.plt>

0000000000027130 <__asan_init@plt>:
   27130:	ff 25 62 8f 01 00    	jmpq   *0x18f62(%rip)        # 40098 <__asan_init>
   27136:	68 10 00 00 00       	pushq  $0x10
   2713b:	e9 e0 fe ff ff       	jmpq   27020 <.plt>

0000000000027140 <malloc@plt>:
   27140:	ff 25 5a 8f 01 00    	jmpq   *0x18f5a(%rip)        # 400a0 <malloc>
   27146:	68 11 00 00 00       	pushq  $0x11
   2714b:	e9 d0 fe ff ff       	jmpq   27020 <.plt>

0000000000027150 <glfwInit@plt>:
   27150:	ff 25 52 8f 01 00    	jmpq   *0x18f52(%rip)        # 400a8 <glfwInit>
   27156:	68 12 00 00 00       	pushq  $0x12
   2715b:	e9 c0 fe ff ff       	jmpq   27020 <.plt>

0000000000027160 <__cxa_atexit@plt>:
   27160:	ff 25 4a 8f 01 00    	jmpq   *0x18f4a(%rip)        # 400b0 <__cxa_atexit>
   27166:	68 13 00 00 00       	pushq  $0x13
   2716b:	e9 b0 fe ff ff       	jmpq   27020 <.plt>

0000000000027170 <__asan_report_load1@plt>:
   27170:	ff 25 42 8f 01 00    	jmpq   *0x18f42(%rip)        # 400b8 <__asan_report_load1>
   27176:	68 14 00 00 00       	pushq  $0x14
   2717b:	e9 a0 fe ff ff       	jmpq   27020 <.plt>

0000000000027180 <memcpy@plt>:
   27180:	ff 25 3a 8f 01 00    	jmpq   *0x18f3a(%rip)        # 400c0 <memcpy>
   27186:	68 15 00 00 00       	pushq  $0x15
   2718b:	e9 90 fe ff ff       	jmpq   27020 <.plt>

0000000000027190 <__asan_after_dynamic_init@plt>:
   27190:	ff 25 32 8f 01 00    	jmpq   *0x18f32(%rip)        # 400c8 <__asan_after_dynamic_init>
   27196:	68 16 00 00 00       	pushq  $0x16
   2719b:	e9 80 fe ff ff       	jmpq   27020 <.plt>

00000000000271a0 <glfwSwapBuffers@plt>:
   271a0:	ff 25 2a 8f 01 00    	jmpq   *0x18f2a(%rip)        # 400d0 <glfwSwapBuffers>
   271a6:	68 17 00 00 00       	pushq  $0x17
   271ab:	e9 70 fe ff ff       	jmpq   27020 <.plt>

00000000000271b0 <dlclose@plt>:
   271b0:	ff 25 22 8f 01 00    	jmpq   *0x18f22(%rip)        # 400d8 <dlclose>
   271b6:	68 18 00 00 00       	pushq  $0x18
   271bb:	e9 60 fe ff ff       	jmpq   27020 <.plt>

00000000000271c0 <glfwSetFramebufferSizeCallback@plt>:
   271c0:	ff 25 1a 8f 01 00    	jmpq   *0x18f1a(%rip)        # 400e0 <glfwSetFramebufferSizeCallback>
   271c6:	68 19 00 00 00       	pushq  $0x19
   271cb:	e9 50 fe ff ff       	jmpq   27020 <.plt>

00000000000271d0 <__asan_report_load8@plt>:
   271d0:	ff 25 12 8f 01 00    	jmpq   *0x18f12(%rip)        # 400e8 <__asan_report_load8>
   271d6:	68 1a 00 00 00       	pushq  $0x1a
   271db:	e9 40 fe ff ff       	jmpq   27020 <.plt>

00000000000271e0 <_ZNSt8ios_base4InitC1Ev@plt>:
   271e0:	ff 25 0a 8f 01 00    	jmpq   *0x18f0a(%rip)        # 400f0 <_ZNSt8ios_base4InitC1Ev@GLIBCXX_3.4>
   271e6:	68 1b 00 00 00       	pushq  $0x1b
   271eb:	e9 30 fe ff ff       	jmpq   27020 <.plt>

00000000000271f0 <glfwCreateWindow@plt>:
   271f0:	ff 25 02 8f 01 00    	jmpq   *0x18f02(%rip)        # 400f8 <glfwCreateWindow>
   271f6:	68 1c 00 00 00       	pushq  $0x1c
   271fb:	e9 20 fe ff ff       	jmpq   27020 <.plt>

0000000000027200 <__asan_stack_malloc_2@plt>:
   27200:	ff 25 fa 8e 01 00    	jmpq   *0x18efa(%rip)        # 40100 <__asan_stack_malloc_2>
   27206:	68 1d 00 00 00       	pushq  $0x1d
   2720b:	e9 10 fe ff ff       	jmpq   27020 <.plt>

0000000000027210 <strstr@plt>:
   27210:	ff 25 f2 8e 01 00    	jmpq   *0x18ef2(%rip)        # 40108 <strstr>
   27216:	68 1e 00 00 00       	pushq  $0x1e
   2721b:	e9 00 fe ff ff       	jmpq   27020 <.plt>

0000000000027220 <__asan_version_mismatch_check_v8@plt>:
   27220:	ff 25 ea 8e 01 00    	jmpq   *0x18eea(%rip)        # 40110 <__asan_version_mismatch_check_v8>
   27226:	68 1f 00 00 00       	pushq  $0x1f
   2722b:	e9 f0 fd ff ff       	jmpq   27020 <.plt>

0000000000027230 <strncmp@plt>:
   27230:	ff 25 e2 8e 01 00    	jmpq   *0x18ee2(%rip)        # 40118 <strncmp>
   27236:	68 20 00 00 00       	pushq  $0x20
   2723b:	e9 e0 fd ff ff       	jmpq   27020 <.plt>

0000000000027240 <dlsym@plt>:
   27240:	ff 25 da 8e 01 00    	jmpq   *0x18eda(%rip)        # 40120 <dlsym@GLIBC_2.2.5>
   27246:	68 21 00 00 00       	pushq  $0x21
   2724b:	e9 d0 fd ff ff       	jmpq   27020 <.plt>

0000000000027250 <glfwWindowShouldClose@plt>:
   27250:	ff 25 d2 8e 01 00    	jmpq   *0x18ed2(%rip)        # 40128 <glfwWindowShouldClose>
   27256:	68 22 00 00 00       	pushq  $0x22
   2725b:	e9 c0 fd ff ff       	jmpq   27020 <.plt>

0000000000027260 <__asan_before_dynamic_init@plt>:
   27260:	ff 25 ca 8e 01 00    	jmpq   *0x18eca(%rip)        # 40130 <__asan_before_dynamic_init>
   27266:	68 23 00 00 00       	pushq  $0x23
   2726b:	e9 b0 fd ff ff       	jmpq   27020 <.plt>

Disassembly of section .text:

0000000000027270 <_start>:
   27270:	f3 0f 1e fa          	endbr64 
   27274:	31 ed                	xor    %ebp,%ebp
   27276:	49 89 d1             	mov    %rdx,%r9
   27279:	5e                   	pop    %rsi
   2727a:	48 89 e2             	mov    %rsp,%rdx
   2727d:	48 83 e4 f0          	and    $0xfffffffffffffff0,%rsp
   27281:	50                   	push   %rax
   27282:	54                   	push   %rsp
   27283:	4c 8d 05 a6 55 00 00 	lea    0x55a6(%rip),%r8        # 2c830 <__libc_csu_fini>
   2728a:	48 8d 0d 2f 55 00 00 	lea    0x552f(%rip),%rcx        # 2c7c0 <__libc_csu_init>
   27291:	48 8d 3d ff 52 00 00 	lea    0x52ff(%rip),%rdi        # 2c597 <main>
   27298:	ff 15 42 8d 01 00    	callq  *0x18d42(%rip)        # 3ffe0 <__libc_start_main@GLIBC_2.2.5>
   2729e:	f4                   	hlt    
   2729f:	90                   	nop

00000000000272a0 <deregister_tm_clones>:
   272a0:	48 8d 3d d9 21 03 00 	lea    0x321d9(%rip),%rdi        # 59480 <__asan_option_detect_stack_use_after_return>
   272a7:	48 8d 05 d2 21 03 00 	lea    0x321d2(%rip),%rax        # 59480 <__asan_option_detect_stack_use_after_return>
   272ae:	48 39 f8             	cmp    %rdi,%rax
   272b1:	74 15                	je     272c8 <deregister_tm_clones+0x28>
   272b3:	48 8b 05 1e 8d 01 00 	mov    0x18d1e(%rip),%rax        # 3ffd8 <_ITM_deregisterTMCloneTable>
   272ba:	48 85 c0             	test   %rax,%rax
   272bd:	74 09                	je     272c8 <deregister_tm_clones+0x28>
   272bf:	ff e0                	jmpq   *%rax
   272c1:	0f 1f 80 00 00 00 00 	nopl   0x0(%rax)
   272c8:	c3                   	retq   
   272c9:	0f 1f 80 00 00 00 00 	nopl   0x0(%rax)

00000000000272d0 <register_tm_clones>:
   272d0:	48 8d 3d a9 21 03 00 	lea    0x321a9(%rip),%rdi        # 59480 <__asan_option_detect_stack_use_after_return>
   272d7:	48 8d 35 a2 21 03 00 	lea    0x321a2(%rip),%rsi        # 59480 <__asan_option_detect_stack_use_after_return>
   272de:	48 29 fe             	sub    %rdi,%rsi
   272e1:	48 c1 fe 03          	sar    $0x3,%rsi
   272e5:	48 89 f0             	mov    %rsi,%rax
   272e8:	48 c1 e8 3f          	shr    $0x3f,%rax
   272ec:	48 01 c6             	add    %rax,%rsi
   272ef:	48 d1 fe             	sar    %rsi
   272f2:	74 14                	je     27308 <register_tm_clones+0x38>
   272f4:	48 8b 05 f5 8c 01 00 	mov    0x18cf5(%rip),%rax        # 3fff0 <_ITM_registerTMCloneTable>
   272fb:	48 85 c0             	test   %rax,%rax
   272fe:	74 08                	je     27308 <register_tm_clones+0x38>
   27300:	ff e0                	jmpq   *%rax
   27302:	66 0f 1f 44 00 00    	nopw   0x0(%rax,%rax,1)
   27308:	c3                   	retq   
   27309:	0f 1f 80 00 00 00 00 	nopl   0x0(%rax)

0000000000027310 <__do_global_dtors_aux>:
   27310:	f3 0f 1e fa          	endbr64 
   27314:	80 3d 95 22 03 00 00 	cmpb   $0x0,0x32295(%rip)        # 595b0 <completed.7287>
   2731b:	75 33                	jne    27350 <__do_global_dtors_aux+0x40>
   2731d:	55                   	push   %rbp
   2731e:	48 83 3d a2 8c 01 00 	cmpq   $0x0,0x18ca2(%rip)        # 3ffc8 <__cxa_finalize@GLIBC_2.2.5>
   27325:	00 
   27326:	48 89 e5             	mov    %rsp,%rbp
   27329:	74 0d                	je     27338 <__do_global_dtors_aux+0x28>
   2732b:	48 8b 3d 16 8e 01 00 	mov    0x18e16(%rip),%rdi        # 40148 <__dso_handle>
   27332:	ff 15 90 8c 01 00    	callq  *0x18c90(%rip)        # 3ffc8 <__cxa_finalize@GLIBC_2.2.5>
   27338:	e8 63 ff ff ff       	callq  272a0 <deregister_tm_clones>
   2733d:	c6 05 6c 22 03 00 01 	movb   $0x1,0x3226c(%rip)        # 595b0 <completed.7287>
   27344:	5d                   	pop    %rbp
   27345:	c3                   	retq   
   27346:	66 2e 0f 1f 84 00 00 	nopw   %cs:0x0(%rax,%rax,1)
   2734d:	00 00 00 
   27350:	c3                   	retq   
   27351:	66 66 2e 0f 1f 84 00 	data16 nopw %cs:0x0(%rax,%rax,1)
   27358:	00 00 00 00 
   2735c:	0f 1f 40 00          	nopl   0x0(%rax)

0000000000027360 <frame_dummy>:
   27360:	f3 0f 1e fa          	endbr64 
   27364:	e9 67 ff ff ff       	jmpq   272d0 <register_tm_clones>

0000000000027369 <_ZL7open_glv>:
   27369:	55                   	push   %rbp
   2736a:	48 89 e5             	mov    %rsp,%rbp
   2736d:	48 83 ec 10          	sub    $0x10,%rsp
   27371:	c7 45 fc 00 00 00 00 	movl   $0x0,-0x4(%rbp)
   27378:	c7 45 fc 00 00 00 00 	movl   $0x0,-0x4(%rbp)
   2737f:	83 7d fc 01          	cmpl   $0x1,-0x4(%rbp)
   27383:	0f 87 a0 00 00 00    	ja     27429 <_ZL7open_glv+0xc0>
   27389:	8b 45 fc             	mov    -0x4(%rbp),%eax
   2738c:	48 8d 14 c5 00 00 00 	lea    0x0(,%rax,8),%rdx
   27393:	00 
   27394:	48 8d 05 c5 8d 01 00 	lea    0x18dc5(%rip),%rax        # 40160 <_ZZL7open_glvE5NAMES>
   2739b:	48 01 d0             	add    %rdx,%rax
   2739e:	48 89 c2             	mov    %rax,%rdx
   273a1:	48 c1 ea 03          	shr    $0x3,%rdx
   273a5:	48 81 c2 00 80 ff 7f 	add    $0x7fff8000,%rdx
   273ac:	0f b6 12             	movzbl (%rdx),%edx
   273af:	84 d2                	test   %dl,%dl
   273b1:	74 08                	je     273bb <_ZL7open_glv+0x52>
   273b3:	48 89 c7             	mov    %rax,%rdi
   273b6:	e8 15 fe ff ff       	callq  271d0 <__asan_report_load8@plt>
   273bb:	8b 45 fc             	mov    -0x4(%rbp),%eax
   273be:	48 8d 14 c5 00 00 00 	lea    0x0(,%rax,8),%rdx
   273c5:	00 
   273c6:	48 8d 05 93 8d 01 00 	lea    0x18d93(%rip),%rax        # 40160 <_ZZL7open_glvE5NAMES>
   273cd:	48 8b 04 02          	mov    (%rdx,%rax,1),%rax
   273d1:	be 02 01 00 00       	mov    $0x102,%esi
   273d6:	48 89 c7             	mov    %rax,%rdi
   273d9:	e8 c2 fc ff ff       	callq  270a0 <dlopen@plt>
   273de:	48 89 05 db 21 03 00 	mov    %rax,0x321db(%rip)        # 595c0 <_ZL5libGL>
   273e5:	48 8b 05 d4 21 03 00 	mov    0x321d4(%rip),%rax        # 595c0 <_ZL5libGL>
   273ec:	48 85 c0             	test   %rax,%rax
   273ef:	74 2f                	je     27420 <_ZL7open_glv+0xb7>
   273f1:	48 8b 05 c8 21 03 00 	mov    0x321c8(%rip),%rax        # 595c0 <_ZL5libGL>
   273f8:	48 8d 35 a1 5c 00 00 	lea    0x5ca1(%rip),%rsi        # 2d0a0 <_IO_stdin_used+0xa0>
   273ff:	48 89 c7             	mov    %rax,%rdi
   27402:	e8 39 fe ff ff       	callq  27240 <dlsym@plt>
   27407:	48 89 05 f2 21 03 00 	mov    %rax,0x321f2(%rip)        # 59600 <_ZL21gladGetProcAddressPtr>
   2740e:	48 8b 05 eb 21 03 00 	mov    0x321eb(%rip),%rax        # 59600 <_ZL21gladGetProcAddressPtr>
   27415:	48 85 c0             	test   %rax,%rax
   27418:	0f 95 c0             	setne  %al
   2741b:	0f b6 c0             	movzbl %al,%eax
   2741e:	eb 0e                	jmp    2742e <_ZL7open_glv+0xc5>
   27420:	83 45 fc 01          	addl   $0x1,-0x4(%rbp)
   27424:	e9 56 ff ff ff       	jmpq   2737f <_ZL7open_glv+0x16>
   27429:	b8 00 00 00 00       	mov    $0x0,%eax
   2742e:	c9                   	leaveq 
   2742f:	c3                   	retq   

0000000000027430 <_ZL8close_glv>:
   27430:	55                   	push   %rbp
   27431:	48 89 e5             	mov    %rsp,%rbp
   27434:	48 8b 05 85 21 03 00 	mov    0x32185(%rip),%rax        # 595c0 <_ZL5libGL>
   2743b:	48 85 c0             	test   %rax,%rax
   2743e:	74 1a                	je     2745a <_ZL8close_glv+0x2a>
   27440:	48 8b 05 79 21 03 00 	mov    0x32179(%rip),%rax        # 595c0 <_ZL5libGL>
   27447:	48 89 c7             	mov    %rax,%rdi
   2744a:	e8 61 fd ff ff       	callq  271b0 <dlclose@plt>
   2744f:	48 c7 05 66 21 03 00 	movq   $0x0,0x32166(%rip)        # 595c0 <_ZL5libGL>
   27456:	00 00 00 00 
   2745a:	90                   	nop
   2745b:	5d                   	pop    %rbp
   2745c:	c3                   	retq   

000000000002745d <_ZL8get_procPKc>:
   2745d:	55                   	push   %rbp
   2745e:	48 89 e5             	mov    %rsp,%rbp
   27461:	48 83 ec 20          	sub    $0x20,%rsp
   27465:	48 89 7d e8          	mov    %rdi,-0x18(%rbp)
   27469:	48 c7 45 f8 00 00 00 	movq   $0x0,-0x8(%rbp)
   27470:	00 
   27471:	48 8b 05 48 21 03 00 	mov    0x32148(%rip),%rax        # 595c0 <_ZL5libGL>
   27478:	48 85 c0             	test   %rax,%rax
   2747b:	75 07                	jne    27484 <_ZL8get_procPKc+0x27>
   2747d:	b8 00 00 00 00       	mov    $0x0,%eax
   27482:	eb 45                	jmp    274c9 <_ZL8get_procPKc+0x6c>
   27484:	48 8b 05 75 21 03 00 	mov    0x32175(%rip),%rax        # 59600 <_ZL21gladGetProcAddressPtr>
   2748b:	48 85 c0             	test   %rax,%rax
   2748e:	74 14                	je     274a4 <_ZL8get_procPKc+0x47>
   27490:	48 8b 05 69 21 03 00 	mov    0x32169(%rip),%rax        # 59600 <_ZL21gladGetProcAddressPtr>
   27497:	48 8b 55 e8          	mov    -0x18(%rbp),%rdx
   2749b:	48 89 d7             	mov    %rdx,%rdi
   2749e:	ff d0                	callq  *%rax
   274a0:	48 89 45 f8          	mov    %rax,-0x8(%rbp)
   274a4:	48 83 7d f8 00       	cmpq   $0x0,-0x8(%rbp)
   274a9:	75 1a                	jne    274c5 <_ZL8get_procPKc+0x68>
   274ab:	48 8b 05 0e 21 03 00 	mov    0x3210e(%rip),%rax        # 595c0 <_ZL5libGL>
   274b2:	48 8b 55 e8          	mov    -0x18(%rbp),%rdx
   274b6:	48 89 d6             	mov    %rdx,%rsi
   274b9:	48 89 c7             	mov    %rax,%rdi
   274bc:	e8 7f fd ff ff       	callq  27240 <dlsym@plt>
   274c1:	48 89 45 f8          	mov    %rax,-0x8(%rbp)
   274c5:	48 8b 45 f8          	mov    -0x8(%rbp),%rax
   274c9:	c9                   	leaveq 
   274ca:	c3                   	retq   

00000000000274cb <gladLoadGL>:
   274cb:	55                   	push   %rbp
   274cc:	48 89 e5             	mov    %rsp,%rbp
   274cf:	48 83 ec 10          	sub    $0x10,%rsp
   274d3:	c7 45 fc 00 00 00 00 	movl   $0x0,-0x4(%rbp)
   274da:	e8 8a fe ff ff       	callq  27369 <_ZL7open_glv>
   274df:	85 c0                	test   %eax,%eax
   274e1:	0f 95 c0             	setne  %al
   274e4:	84 c0                	test   %al,%al
   274e6:	74 14                	je     274fc <gladLoadGL+0x31>
   274e8:	48 8d 3d 6e ff ff ff 	lea    -0x92(%rip),%rdi        # 2745d <_ZL8get_procPKc>
   274ef:	e8 96 4e 00 00       	callq  2c38a <gladLoadGLLoader>
   274f4:	89 45 fc             	mov    %eax,-0x4(%rbp)
   274f7:	e8 34 ff ff ff       	callq  27430 <_ZL8close_glv>
   274fc:	8b 45 fc             	mov    -0x4(%rbp),%eax
   274ff:	c9                   	leaveq 
   27500:	c3                   	retq   

0000000000027501 <_ZL8get_extsv>:
   27501:	55                   	push   %rbp
   27502:	48 89 e5             	mov    %rsp,%rbp
   27505:	48 83 ec 20          	sub    $0x20,%rsp
   27509:	8b 05 71 21 03 00    	mov    0x32171(%rip),%eax        # 59680 <_ZL16max_loaded_major>
   2750f:	83 f8 02             	cmp    $0x2,%eax
   27512:	7f 1a                	jg     2752e <_ZL8get_extsv+0x2d>
   27514:	48 8b 05 a5 69 03 00 	mov    0x369a5(%rip),%rax        # 5dec0 <glad_glGetString>
   2751b:	bf 03 1f 00 00       	mov    $0x1f03,%edi
   27520:	ff d0                	callq  *%rax
   27522:	48 89 05 d7 21 03 00 	mov    %rax,0x321d7(%rip)        # 59700 <_ZL4exts>
   27529:	e9 0e 01 00 00       	jmpq   2763c <_ZL8get_extsv+0x13b>
   2752e:	c7 05 08 22 03 00 00 	movl   $0x0,0x32208(%rip)        # 59740 <_ZL10num_exts_i>
   27535:	00 00 00 
   27538:	48 8b 05 41 5e 03 00 	mov    0x35e41(%rip),%rax        # 5d380 <glad_glGetIntegerv>
   2753f:	48 8d 35 fa 21 03 00 	lea    0x321fa(%rip),%rsi        # 59740 <_ZL10num_exts_i>
   27546:	bf 1d 82 00 00       	mov    $0x821d,%edi
   2754b:	ff d0                	callq  *%rax
   2754d:	8b 05 ed 21 03 00    	mov    0x321ed(%rip),%eax        # 59740 <_ZL10num_exts_i>
   27553:	85 c0                	test   %eax,%eax
   27555:	7e 1b                	jle    27572 <_ZL8get_extsv+0x71>
   27557:	8b 05 e3 21 03 00    	mov    0x321e3(%rip),%eax        # 59740 <_ZL10num_exts_i>
   2755d:	48 98                	cltq   
   2755f:	48 c1 e0 03          	shl    $0x3,%rax
   27563:	48 89 c7             	mov    %rax,%rdi
   27566:	e8 d5 fb ff ff       	callq  27140 <malloc@plt>
   2756b:	48 89 05 0e 22 03 00 	mov    %rax,0x3220e(%rip)        # 59780 <_ZL6exts_i>
   27572:	48 8b 05 07 22 03 00 	mov    0x32207(%rip),%rax        # 59780 <_ZL6exts_i>
   27579:	48 85 c0             	test   %rax,%rax
   2757c:	75 0a                	jne    27588 <_ZL8get_extsv+0x87>
   2757e:	b8 00 00 00 00       	mov    $0x0,%eax
   27583:	e9 b9 00 00 00       	jmpq   27641 <_ZL8get_extsv+0x140>
   27588:	c7 45 e4 00 00 00 00 	movl   $0x0,-0x1c(%rbp)
   2758f:	8b 05 ab 21 03 00    	mov    0x321ab(%rip),%eax        # 59740 <_ZL10num_exts_i>
   27595:	39 45 e4             	cmp    %eax,-0x1c(%rbp)
   27598:	0f 83 9e 00 00 00    	jae    2763c <_ZL8get_extsv+0x13b>
   2759e:	48 8b 05 5b 69 03 00 	mov    0x3695b(%rip),%rax        # 5df00 <glad_glGetStringi>
   275a5:	8b 55 e4             	mov    -0x1c(%rbp),%edx
   275a8:	89 d6                	mov    %edx,%esi
   275aa:	bf 03 1f 00 00       	mov    $0x1f03,%edi
   275af:	ff d0                	callq  *%rax
   275b1:	48 89 45 e8          	mov    %rax,-0x18(%rbp)
   275b5:	48 8b 45 e8          	mov    -0x18(%rbp),%rax
   275b9:	48 89 c7             	mov    %rax,%rdi
   275bc:	e8 7f fa ff ff       	callq  27040 <strlen@plt>
   275c1:	48 89 45 f0          	mov    %rax,-0x10(%rbp)
   275c5:	48 8b 45 f0          	mov    -0x10(%rbp),%rax
   275c9:	48 83 c0 01          	add    $0x1,%rax
   275cd:	48 89 c7             	mov    %rax,%rdi
   275d0:	e8 6b fb ff ff       	callq  27140 <malloc@plt>
   275d5:	48 89 45 f8          	mov    %rax,-0x8(%rbp)
   275d9:	48 83 7d f8 00       	cmpq   $0x0,-0x8(%rbp)
   275de:	74 1b                	je     275fb <_ZL8get_extsv+0xfa>
   275e0:	48 8b 45 f0          	mov    -0x10(%rbp),%rax
   275e4:	48 8d 50 01          	lea    0x1(%rax),%rdx
   275e8:	48 8b 4d e8          	mov    -0x18(%rbp),%rcx
   275ec:	48 8b 45 f8          	mov    -0x8(%rbp),%rax
   275f0:	48 89 ce             	mov    %rcx,%rsi
   275f3:	48 89 c7             	mov    %rax,%rdi
   275f6:	e8 85 fb ff ff       	callq  27180 <memcpy@plt>
   275fb:	48 8b 05 7e 21 03 00 	mov    0x3217e(%rip),%rax        # 59780 <_ZL6exts_i>
   27602:	8b 55 e4             	mov    -0x1c(%rbp),%edx
   27605:	48 c1 e2 03          	shl    $0x3,%rdx
   27609:	48 01 d0             	add    %rdx,%rax
   2760c:	48 89 c2             	mov    %rax,%rdx
   2760f:	48 89 d1             	mov    %rdx,%rcx
   27612:	48 c1 e9 03          	shr    $0x3,%rcx
   27616:	48 81 c1 00 80 ff 7f 	add    $0x7fff8000,%rcx
   2761d:	0f b6 09             	movzbl (%rcx),%ecx
   27620:	84 c9                	test   %cl,%cl
   27622:	74 08                	je     2762c <_ZL8get_extsv+0x12b>
   27624:	48 89 d7             	mov    %rdx,%rdi
   27627:	e8 c4 fa ff ff       	callq  270f0 <__asan_report_store8@plt>
   2762c:	48 8b 55 f8          	mov    -0x8(%rbp),%rdx
   27630:	48 89 10             	mov    %rdx,(%rax)
   27633:	83 45 e4 01          	addl   $0x1,-0x1c(%rbp)
   27637:	e9 53 ff ff ff       	jmpq   2758f <_ZL8get_extsv+0x8e>
   2763c:	b8 01 00 00 00       	mov    $0x1,%eax
   27641:	c9                   	leaveq 
   27642:	c3                   	retq   

0000000000027643 <_ZL9free_extsv>:
   27643:	55                   	push   %rbp
   27644:	48 89 e5             	mov    %rsp,%rbp
   27647:	48 83 ec 10          	sub    $0x10,%rsp
   2764b:	48 8b 05 2e 21 03 00 	mov    0x3212e(%rip),%rax        # 59780 <_ZL6exts_i>
   27652:	48 85 c0             	test   %rax,%rax
   27655:	74 71                	je     276c8 <_ZL9free_extsv+0x85>
   27657:	c7 45 fc 00 00 00 00 	movl   $0x0,-0x4(%rbp)
   2765e:	8b 05 dc 20 03 00    	mov    0x320dc(%rip),%eax        # 59740 <_ZL10num_exts_i>
   27664:	39 45 fc             	cmp    %eax,-0x4(%rbp)
   27667:	7d 45                	jge    276ae <_ZL9free_extsv+0x6b>
   27669:	48 8b 05 10 21 03 00 	mov    0x32110(%rip),%rax        # 59780 <_ZL6exts_i>
   27670:	8b 55 fc             	mov    -0x4(%rbp),%edx
   27673:	48 63 d2             	movslq %edx,%rdx
   27676:	48 c1 e2 03          	shl    $0x3,%rdx
   2767a:	48 01 d0             	add    %rdx,%rax
   2767d:	48 89 c2             	mov    %rax,%rdx
   27680:	48 89 d1             	mov    %rdx,%rcx
   27683:	48 c1 e9 03          	shr    $0x3,%rcx
   27687:	48 81 c1 00 80 ff 7f 	add    $0x7fff8000,%rcx
   2768e:	0f b6 09             	movzbl (%rcx),%ecx
   27691:	84 c9                	test   %cl,%cl
   27693:	74 08                	je     2769d <_ZL9free_extsv+0x5a>
   27695:	48 89 d7             	mov    %rdx,%rdi
   27698:	e8 33 fb ff ff       	callq  271d0 <__asan_report_load8@plt>
   2769d:	48 8b 00             	mov    (%rax),%rax
   276a0:	48 89 c7             	mov    %rax,%rdi
   276a3:	e8 b8 f9 ff ff       	callq  27060 <free@plt>
   276a8:	83 45 fc 01          	addl   $0x1,-0x4(%rbp)
   276ac:	eb b0                	jmp    2765e <_ZL9free_extsv+0x1b>
   276ae:	48 8b 05 cb 20 03 00 	mov    0x320cb(%rip),%rax        # 59780 <_ZL6exts_i>
   276b5:	48 89 c7             	mov    %rax,%rdi
   276b8:	e8 a3 f9 ff ff       	callq  27060 <free@plt>
   276bd:	48 c7 05 b8 20 03 00 	movq   $0x0,0x320b8(%rip)        # 59780 <_ZL6exts_i>
   276c4:	00 00 00 00 
   276c8:	90                   	nop
   276c9:	c9                   	leaveq 
   276ca:	c3                   	retq   

00000000000276cb <_ZL7has_extPKc>:
   276cb:	55                   	push   %rbp
   276cc:	48 89 e5             	mov    %rsp,%rbp
   276cf:	48 83 ec 40          	sub    $0x40,%rsp
   276d3:	48 89 7d c8          	mov    %rdi,-0x38(%rbp)
   276d7:	8b 05 a3 1f 03 00    	mov    0x31fa3(%rip),%eax        # 59680 <_ZL16max_loaded_major>
   276dd:	83 f8 02             	cmp    $0x2,%eax
   276e0:	0f 8f 13 01 00 00    	jg     277f9 <_ZL7has_extPKc+0x12e>
   276e6:	48 8b 05 13 20 03 00 	mov    0x32013(%rip),%rax        # 59700 <_ZL4exts>
   276ed:	48 89 45 e0          	mov    %rax,-0x20(%rbp)
   276f1:	48 83 7d e0 00       	cmpq   $0x0,-0x20(%rbp)
   276f6:	74 07                	je     276ff <_ZL7has_extPKc+0x34>
   276f8:	48 83 7d c8 00       	cmpq   $0x0,-0x38(%rbp)
   276fd:	75 0a                	jne    27709 <_ZL7has_extPKc+0x3e>
   276ff:	b8 00 00 00 00       	mov    $0x0,%eax
   27704:	e9 bf 01 00 00       	jmpq   278c8 <_ZL7has_extPKc+0x1fd>
   27709:	48 8b 55 c8          	mov    -0x38(%rbp),%rdx
   2770d:	48 8b 45 e0          	mov    -0x20(%rbp),%rax
   27711:	48 89 d6             	mov    %rdx,%rsi
   27714:	48 89 c7             	mov    %rax,%rdi
   27717:	e8 f4 fa ff ff       	callq  27210 <strstr@plt>
   2771c:	48 89 45 e8          	mov    %rax,-0x18(%rbp)
   27720:	48 83 7d e8 00       	cmpq   $0x0,-0x18(%rbp)
   27725:	75 0a                	jne    27731 <_ZL7has_extPKc+0x66>
   27727:	b8 00 00 00 00       	mov    $0x0,%eax
   2772c:	e9 97 01 00 00       	jmpq   278c8 <_ZL7has_extPKc+0x1fd>
   27731:	48 8b 45 c8          	mov    -0x38(%rbp),%rax
   27735:	48 89 c7             	mov    %rax,%rdi
   27738:	e8 03 f9 ff ff       	callq  27040 <strlen@plt>
   2773d:	48 89 c2             	mov    %rax,%rdx
   27740:	48 8b 45 e8          	mov    -0x18(%rbp),%rax
   27744:	48 01 d0             	add    %rdx,%rax
   27747:	48 89 45 f0          	mov    %rax,-0x10(%rbp)
   2774b:	48 8b 45 e8          	mov    -0x18(%rbp),%rax
   2774f:	48 3b 45 e0          	cmp    -0x20(%rbp),%rax
   27753:	74 43                	je     27798 <_ZL7has_extPKc+0xcd>
   27755:	48 8b 45 e8          	mov    -0x18(%rbp),%rax
   27759:	48 8d 48 ff          	lea    -0x1(%rax),%rcx
   2775d:	48 89 c8             	mov    %rcx,%rax
   27760:	48 89 c2             	mov    %rax,%rdx
   27763:	48 c1 ea 03          	shr    $0x3,%rdx
   27767:	48 81 c2 00 80 ff 7f 	add    $0x7fff8000,%rdx
   2776e:	0f b6 12             	movzbl (%rdx),%edx
   27771:	84 d2                	test   %dl,%dl
   27773:	40 0f 95 c6          	setne  %sil
   27777:	48 89 c7             	mov    %rax,%rdi
   2777a:	83 e7 07             	and    $0x7,%edi
   2777d:	40 38 d7             	cmp    %dl,%dil
   27780:	0f 9d c2             	setge  %dl
   27783:	21 f2                	and    %esi,%edx
   27785:	84 d2                	test   %dl,%dl
   27787:	74 08                	je     27791 <_ZL7has_extPKc+0xc6>
   27789:	48 89 c7             	mov    %rax,%rdi
   2778c:	e8 df f9 ff ff       	callq  27170 <__asan_report_load1@plt>
   27791:	0f b6 01             	movzbl (%rcx),%eax
   27794:	3c 20                	cmp    $0x20,%al
   27796:	75 54                	jne    277ec <_ZL7has_extPKc+0x121>
   27798:	48 8b 45 f0          	mov    -0x10(%rbp),%rax
   2779c:	48 89 c2             	mov    %rax,%rdx
   2779f:	48 c1 ea 03          	shr    $0x3,%rdx
   277a3:	48 81 c2 00 80 ff 7f 	add    $0x7fff8000,%rdx
   277aa:	0f b6 12             	movzbl (%rdx),%edx
   277ad:	84 d2                	test   %dl,%dl
   277af:	0f 95 c1             	setne  %cl
   277b2:	48 89 c6             	mov    %rax,%rsi
   277b5:	83 e6 07             	and    $0x7,%esi
   277b8:	40 38 d6             	cmp    %dl,%sil
   277bb:	0f 9d c2             	setge  %dl
   277be:	21 ca                	and    %ecx,%edx
   277c0:	84 d2                	test   %dl,%dl
   277c2:	74 08                	je     277cc <_ZL7has_extPKc+0x101>
   277c4:	48 89 c7             	mov    %rax,%rdi
   277c7:	e8 a4 f9 ff ff       	callq  27170 <__asan_report_load1@plt>
   277cc:	48 8b 45 f0          	mov    -0x10(%rbp),%rax
   277d0:	0f b6 00             	movzbl (%rax),%eax
   277d3:	3c 20                	cmp    $0x20,%al
   277d5:	74 0b                	je     277e2 <_ZL7has_extPKc+0x117>
   277d7:	48 8b 45 f0          	mov    -0x10(%rbp),%rax
   277db:	0f b6 00             	movzbl (%rax),%eax
   277de:	84 c0                	test   %al,%al
   277e0:	75 0a                	jne    277ec <_ZL7has_extPKc+0x121>
   277e2:	b8 01 00 00 00       	mov    $0x1,%eax
   277e7:	e9 dc 00 00 00       	jmpq   278c8 <_ZL7has_extPKc+0x1fd>
   277ec:	48 8b 45 f0          	mov    -0x10(%rbp),%rax
   277f0:	48 89 45 e0          	mov    %rax,-0x20(%rbp)
   277f4:	e9 10 ff ff ff       	jmpq   27709 <_ZL7has_extPKc+0x3e>
   277f9:	48 8b 05 80 1f 03 00 	mov    0x31f80(%rip),%rax        # 59780 <_ZL6exts_i>
   27800:	48 85 c0             	test   %rax,%rax
   27803:	75 0a                	jne    2780f <_ZL7has_extPKc+0x144>
   27805:	b8 00 00 00 00       	mov    $0x0,%eax
   2780a:	e9 b9 00 00 00       	jmpq   278c8 <_ZL7has_extPKc+0x1fd>
   2780f:	c7 45 dc 00 00 00 00 	movl   $0x0,-0x24(%rbp)
   27816:	8b 05 24 1f 03 00    	mov    0x31f24(%rip),%eax        # 59740 <_ZL10num_exts_i>
   2781c:	39 45 dc             	cmp    %eax,-0x24(%rbp)
   2781f:	0f 8d 9e 00 00 00    	jge    278c3 <_ZL7has_extPKc+0x1f8>
   27825:	48 8b 05 54 1f 03 00 	mov    0x31f54(%rip),%rax        # 59780 <_ZL6exts_i>
   2782c:	8b 55 dc             	mov    -0x24(%rbp),%edx
   2782f:	48 63 d2             	movslq %edx,%rdx
   27832:	48 c1 e2 03          	shl    $0x3,%rdx
   27836:	48 01 d0             	add    %rdx,%rax
   27839:	48 89 c2             	mov    %rax,%rdx
   2783c:	48 89 d1             	mov    %rdx,%rcx
   2783f:	48 c1 e9 03          	shr    $0x3,%rcx
   27843:	48 81 c1 00 80 ff 7f 	add    $0x7fff8000,%rcx
   2784a:	0f b6 09             	movzbl (%rcx),%ecx
   2784d:	84 c9                	test   %cl,%cl
   2784f:	74 08                	je     27859 <_ZL7has_extPKc+0x18e>
   27851:	48 89 d7             	mov    %rdx,%rdi
   27854:	e8 77 f9 ff ff       	callq  271d0 <__asan_report_load8@plt>
   27859:	48 8b 00             	mov    (%rax),%rax
   2785c:	48 89 45 f8          	mov    %rax,-0x8(%rbp)
   27860:	48 8b 05 19 1f 03 00 	mov    0x31f19(%rip),%rax        # 59780 <_ZL6exts_i>
   27867:	8b 55 dc             	mov    -0x24(%rbp),%edx
   2786a:	48 63 d2             	movslq %edx,%rdx
   2786d:	48 c1 e2 03          	shl    $0x3,%rdx
   27871:	48 01 d0             	add    %rdx,%rax
   27874:	48 89 c2             	mov    %rax,%rdx
   27877:	48 89 d1             	mov    %rdx,%rcx
   2787a:	48 c1 e9 03          	shr    $0x3,%rcx
   2787e:	48 81 c1 00 80 ff 7f 	add    $0x7fff8000,%rcx
   27885:	0f b6 09             	movzbl (%rcx),%ecx
   27888:	84 c9                	test   %cl,%cl
   2788a:	74 08                	je     27894 <_ZL7has_extPKc+0x1c9>
   2788c:	48 89 d7             	mov    %rdx,%rdi
   2788f:	e8 3c f9 ff ff       	callq  271d0 <__asan_report_load8@plt>
   27894:	48 8b 00             	mov    (%rax),%rax
   27897:	48 85 c0             	test   %rax,%rax
   2789a:	74 1e                	je     278ba <_ZL7has_extPKc+0x1ef>
   2789c:	48 8b 55 c8          	mov    -0x38(%rbp),%rdx
   278a0:	48 8b 45 f8          	mov    -0x8(%rbp),%rax
   278a4:	48 89 d6             	mov    %rdx,%rsi
   278a7:	48 89 c7             	mov    %rax,%rdi
   278aa:	e8 e1 f7 ff ff       	callq  27090 <strcmp@plt>
   278af:	85 c0                	test   %eax,%eax
   278b1:	75 07                	jne    278ba <_ZL7has_extPKc+0x1ef>
   278b3:	b8 01 00 00 00       	mov    $0x1,%eax
   278b8:	eb 0e                	jmp    278c8 <_ZL7has_extPKc+0x1fd>
   278ba:	83 45 dc 01          	addl   $0x1,-0x24(%rbp)
   278be:	e9 53 ff ff ff       	jmpq   27816 <_ZL7has_extPKc+0x14b>
   278c3:	b8 00 00 00 00       	mov    $0x0,%eax
   278c8:	c9                   	leaveq 
   278c9:	c3                   	retq   

00000000000278ca <_ZL19load_GL_VERSION_1_0PFPvPKcE>:
   278ca:	55                   	push   %rbp
   278cb:	48 89 e5             	mov    %rsp,%rbp
   278ce:	48 83 ec 10          	sub    $0x10,%rsp
   278d2:	48 89 7d f8          	mov    %rdi,-0x8(%rbp)
   278d6:	8b 05 e4 1e 03 00    	mov    0x31ee4(%rip),%eax        # 597c0 <GLAD_GL_VERSION_1_0>
   278dc:	85 c0                	test   %eax,%eax
   278de:	0f 84 c2 03 00 00    	je     27ca6 <_ZL19load_GL_VERSION_1_0PFPvPKcE+0x3dc>
   278e4:	48 8b 45 f8          	mov    -0x8(%rbp),%rax
   278e8:	48 8d 3d f1 57 00 00 	lea    0x57f1(%rip),%rdi        # 2d0e0 <_IO_stdin_used+0xe0>
   278ef:	ff d0                	callq  *%rax
   278f1:	48 89 05 c8 3d 03 00 	mov    %rax,0x33dc8(%rip)        # 5b6c0 <glad_glCullFace>
   278f8:	48 8b 45 f8          	mov    -0x8(%rbp),%rax
   278fc:	48 8d 3d 1d 58 00 00 	lea    0x581d(%rip),%rdi        # 2d120 <_IO_stdin_used+0x120>
   27903:	ff d0                	callq  *%rax
   27905:	48 89 05 b4 4e 03 00 	mov    %rax,0x34eb4(%rip)        # 5c7c0 <glad_glFrontFace>
   2790c:	48 8b 45 f8          	mov    -0x8(%rbp),%rax
   27910:	48 8d 3d 49 58 00 00 	lea    0x5849(%rip),%rdi        # 2d160 <_IO_stdin_used+0x160>
   27917:	ff d0                	callq  *%rax
   27919:	48 89 05 a0 74 03 00 	mov    %rax,0x374a0(%rip)        # 5edc0 <glad_glHint>
   27920:	48 8b 45 f8          	mov    -0x8(%rbp),%rax
   27924:	48 8d 3d 75 58 00 00 	lea    0x5875(%rip),%rdi        # 2d1a0 <_IO_stdin_used+0x1a0>
   2792b:	ff d0                	callq  *%rax
   2792d:	48 89 05 4c 7a 03 00 	mov    %rax,0x37a4c(%rip)        # 5f380 <glad_glLineWidth>
   27934:	48 8b 45 f8          	mov    -0x8(%rbp),%rax
   27938:	48 8d 3d a1 58 00 00 	lea    0x58a1(%rip),%rdi        # 2d1e0 <_IO_stdin_used+0x1e0>
   2793f:	ff d0                	callq  *%rax
   27941:	48 89 05 38 86 03 00 	mov    %rax,0x38638(%rip)        # 5ff80 <glad_glPointSize>
   27948:	48 8b 45 f8          	mov    -0x8(%rbp),%rax
   2794c:	48 8d 3d cd 58 00 00 	lea    0x58cd(%rip),%rdi        # 2d220 <_IO_stdin_used+0x220>
   27953:	ff d0                	callq  *%rax
   27955:	48 89 05 64 86 03 00 	mov    %rax,0x38664(%rip)        # 5ffc0 <glad_glPolygonMode>
   2795c:	48 8b 45 f8          	mov    -0x8(%rbp),%rax
   27960:	48 8d 3d f9 58 00 00 	lea    0x58f9(%rip),%rdi        # 2d260 <_IO_stdin_used+0x260>
   27967:	ff d0                	callq  *%rax
   27969:	48 89 05 d0 98 03 00 	mov    %rax,0x398d0(%rip)        # 61240 <glad_glScissor>
   27970:	48 8b 45 f8          	mov    -0x8(%rbp),%rax
   27974:	48 8d 3d 25 59 00 00 	lea    0x5925(%rip),%rdi        # 2d2a0 <_IO_stdin_used+0x2a0>
   2797b:	ff d0                	callq  *%rax
   2797d:	48 89 05 bc a0 03 00 	mov    %rax,0x3a0bc(%rip)        # 61a40 <glad_glTexParameterf>
   27984:	48 8b 45 f8          	mov    -0x8(%rbp),%rax
   27988:	48 8d 3d 51 59 00 00 	lea    0x5951(%rip),%rdi        # 2d2e0 <_IO_stdin_used+0x2e0>
   2798f:	ff d0                	callq  *%rax
   27991:	48 89 05 e8 a0 03 00 	mov    %rax,0x3a0e8(%rip)        # 61a80 <glad_glTexParameterfv>
   27998:	48 8b 45 f8          	mov    -0x8(%rbp),%rax
   2799c:	48 8d 3d 7d 59 00 00 	lea    0x597d(%rip),%rdi        # 2d320 <_IO_stdin_used+0x320>
   279a3:	ff d0                	callq  *%rax
   279a5:	48 89 05 14 a1 03 00 	mov    %rax,0x3a114(%rip)        # 61ac0 <glad_glTexParameteri>
   279ac:	48 8b 45 f8          	mov    -0x8(%rbp),%rax
   279b0:	48 8d 3d a9 59 00 00 	lea    0x59a9(%rip),%rdi        # 2d360 <_IO_stdin_used+0x360>
   279b7:	ff d0                	callq  *%rax
   279b9:	48 89 05 40 a1 03 00 	mov    %rax,0x3a140(%rip)        # 61b00 <glad_glTexParameteriv>
   279c0:	48 8b 45 f8          	mov    -0x8(%rbp),%rax
   279c4:	48 8d 3d d5 59 00 00 	lea    0x59d5(%rip),%rdi        # 2d3a0 <_IO_stdin_used+0x3a0>
   279cb:	ff d0                	callq  *%rax
   279cd:	48 89 05 ac 9e 03 00 	mov    %rax,0x39eac(%rip)        # 61880 <glad_glTexImage1D>
   279d4:	48 8b 45 f8          	mov    -0x8(%rbp),%rax
   279d8:	48 8d 3d 01 5a 00 00 	lea    0x5a01(%rip),%rdi        # 2d3e0 <_IO_stdin_used+0x3e0>
   279df:	ff d0                	callq  *%rax
   279e1:	48 89 05 d8 9e 03 00 	mov    %rax,0x39ed8(%rip)        # 618c0 <glad_glTexImage2D>
   279e8:	48 8b 45 f8          	mov    -0x8(%rbp),%rax
   279ec:	48 8d 3d 2d 5a 00 00 	lea    0x5a2d(%rip),%rdi        # 2d420 <_IO_stdin_used+0x420>
   279f3:	ff d0                	callq  *%rax
   279f5:	48 89 05 04 45 03 00 	mov    %rax,0x34504(%rip)        # 5bf00 <glad_glDrawBuffer>
   279fc:	48 8b 45 f8          	mov    -0x8(%rbp),%rax
   27a00:	48 8d 3d 59 5a 00 00 	lea    0x5a59(%rip),%rdi        # 2d460 <_IO_stdin_used+0x460>
   27a07:	ff d0                	callq  *%rax
   27a09:	48 89 05 b0 2d 03 00 	mov    %rax,0x32db0(%rip)        # 5a7c0 <glad_glClear>
   27a10:	48 8b 45 f8          	mov    -0x8(%rbp),%rax
   27a14:	48 8d 3d 85 5a 00 00 	lea    0x5a85(%rip),%rdi        # 2d4a0 <_IO_stdin_used+0x4a0>
   27a1b:	ff d0                	callq  *%rax
   27a1d:	48 89 05 5c 2f 03 00 	mov    %rax,0x32f5c(%rip)        # 5a980 <glad_glClearColor>
   27a24:	48 8b 45 f8          	mov    -0x8(%rbp),%rax
   27a28:	48 8d 3d b1 5a 00 00 	lea    0x5ab1(%rip),%rdi        # 2d4e0 <_IO_stdin_used+0x4e0>
   27a2f:	ff d0                	callq  *%rax
   27a31:	48 89 05 88 31 03 00 	mov    %rax,0x33188(%rip)        # 5abc0 <glad_glClearStencil>
   27a38:	48 8b 45 f8          	mov    -0x8(%rbp),%rax
   27a3c:	48 8d 3d dd 5a 00 00 	lea    0x5add(%rip),%rdi        # 2d520 <_IO_stdin_used+0x520>
   27a43:	ff d0                	callq  *%rax
   27a45:	48 89 05 74 2f 03 00 	mov    %rax,0x32f74(%rip)        # 5a9c0 <glad_glClearDepth>
   27a4c:	48 8b 45 f8          	mov    -0x8(%rbp),%rax
   27a50:	48 8d 3d 09 5b 00 00 	lea    0x5b09(%rip),%rdi        # 2d560 <_IO_stdin_used+0x560>
   27a57:	ff d0                	callq  *%rax
   27a59:	48 89 05 a0 9a 03 00 	mov    %rax,0x39aa0(%rip)        # 61500 <glad_glStencilMask>
   27a60:	48 8b 45 f8          	mov    -0x8(%rbp),%rax
   27a64:	48 8d 3d 35 5b 00 00 	lea    0x5b35(%rip),%rdi        # 2d5a0 <_IO_stdin_used+0x5a0>
   27a6b:	ff d0                	callq  *%rax
   27a6d:	48 89 05 8c 32 03 00 	mov    %rax,0x3328c(%rip)        # 5ad00 <glad_glColorMask>
   27a74:	48 8b 45 f8          	mov    -0x8(%rbp),%rax
   27a78:	48 8d 3d 61 5b 00 00 	lea    0x5b61(%rip),%rdi        # 2d5e0 <_IO_stdin_used+0x5e0>
   27a7f:	ff d0                	callq  *%rax
   27a81:	48 89 05 78 40 03 00 	mov    %rax,0x34078(%rip)        # 5bb00 <glad_glDepthMask>
   27a88:	48 8b 45 f8          	mov    -0x8(%rbp),%rax
   27a8c:	48 8d 3d 8d 5b 00 00 	lea    0x5b8d(%rip),%rdi        # 2d620 <_IO_stdin_used+0x620>
   27a93:	ff d0                	callq  *%rax
   27a95:	48 89 05 e4 41 03 00 	mov    %rax,0x341e4(%rip)        # 5bc80 <glad_glDisable>
   27a9c:	48 8b 45 f8          	mov    -0x8(%rbp),%rax
   27aa0:	48 8d 3d b9 5b 00 00 	lea    0x5bb9(%rip),%rdi        # 2d660 <_IO_stdin_used+0x660>
   27aa7:	ff d0                	callq  *%rax
   27aa9:	48 89 05 10 48 03 00 	mov    %rax,0x34810(%rip)        # 5c2c0 <glad_glEnable>
   27ab0:	48 8b 45 f8          	mov    -0x8(%rbp),%rax
   27ab4:	48 8d 3d e5 5b 00 00 	lea    0x5be5(%rip),%rdi        # 2d6a0 <_IO_stdin_used+0x6a0>
   27abb:	ff d0                	callq  *%rax
   27abd:	48 89 05 3c 4a 03 00 	mov    %rax,0x34a3c(%rip)        # 5c500 <glad_glFinish>
   27ac4:	48 8b 45 f8          	mov    -0x8(%rbp),%rax
   27ac8:	48 8d 3d 11 5c 00 00 	lea    0x5c11(%rip),%rdi        # 2d6e0 <_IO_stdin_used+0x6e0>
   27acf:	ff d0                	callq  *%rax
   27ad1:	48 89 05 68 4a 03 00 	mov    %rax,0x34a68(%rip)        # 5c540 <glad_glFlush>
   27ad8:	48 8b 45 f8          	mov    -0x8(%rbp),%rax
   27adc:	48 8d 3d 3d 5c 00 00 	lea    0x5c3d(%rip),%rdi        # 2d720 <_IO_stdin_used+0x720>
   27ae3:	ff d0                	callq  *%rax
   27ae5:	48 89 05 d4 29 03 00 	mov    %rax,0x329d4(%rip)        # 5a4c0 <glad_glBlendFunc>
   27aec:	48 8b 45 f8          	mov    -0x8(%rbp),%rax
   27af0:	48 8d 3d 69 5c 00 00 	lea    0x5c69(%rip),%rdi        # 2d760 <_IO_stdin_used+0x760>
   27af7:	ff d0                	callq  *%rax
   27af9:	48 89 05 00 79 03 00 	mov    %rax,0x37900(%rip)        # 5f400 <glad_glLogicOp>
   27b00:	48 8b 45 f8          	mov    -0x8(%rbp),%rax
   27b04:	48 8d 3d 95 5c 00 00 	lea    0x5c95(%rip),%rdi        # 2d7a0 <_IO_stdin_used+0x7a0>
   27b0b:	ff d0                	callq  *%rax
   27b0d:	48 89 05 6c 99 03 00 	mov    %rax,0x3996c(%rip)        # 61480 <glad_glStencilFunc>
   27b14:	48 8b 45 f8          	mov    -0x8(%rbp),%rax
   27b18:	48 8d 3d c1 5c 00 00 	lea    0x5cc1(%rip),%rdi        # 2d7e0 <_IO_stdin_used+0x7e0>
   27b1f:	ff d0                	callq  *%rax
   27b21:	48 89 05 58 9a 03 00 	mov    %rax,0x39a58(%rip)        # 61580 <glad_glStencilOp>
   27b28:	48 8b 45 f8          	mov    -0x8(%rbp),%rax
   27b2c:	48 8d 3d ed 5c 00 00 	lea    0x5ced(%rip),%rdi        # 2d820 <_IO_stdin_used+0x820>
   27b33:	ff d0                	callq  *%rax
   27b35:	48 89 05 84 3f 03 00 	mov    %rax,0x33f84(%rip)        # 5bac0 <glad_glDepthFunc>
   27b3c:	48 8b 45 f8          	mov    -0x8(%rbp),%rax
   27b40:	48 8d 3d 19 5d 00 00 	lea    0x5d19(%rip),%rdi        # 2d860 <_IO_stdin_used+0x860>
   27b47:	ff d0                	callq  *%rax
   27b49:	48 89 05 b0 82 03 00 	mov    %rax,0x382b0(%rip)        # 5fe00 <glad_glPixelStoref>
   27b50:	48 8b 45 f8          	mov    -0x8(%rbp),%rax
   27b54:	48 8d 3d 45 5d 00 00 	lea    0x5d45(%rip),%rdi        # 2d8a0 <_IO_stdin_used+0x8a0>
   27b5b:	ff d0                	callq  *%rax
   27b5d:	48 89 05 dc 82 03 00 	mov    %rax,0x382dc(%rip)        # 5fe40 <glad_glPixelStorei>
   27b64:	48 8b 45 f8          	mov    -0x8(%rbp),%rax
   27b68:	48 8d 3d 71 5d 00 00 	lea    0x5d71(%rip),%rdi        # 2d8e0 <_IO_stdin_used+0x8e0>
   27b6f:	ff d0                	callq  *%rax
   27b71:	48 89 05 08 93 03 00 	mov    %rax,0x39308(%rip)        # 60e80 <glad_glReadBuffer>
   27b78:	48 8b 45 f8          	mov    -0x8(%rbp),%rax
   27b7c:	48 8d 3d 9d 5d 00 00 	lea    0x5d9d(%rip),%rdi        # 2d920 <_IO_stdin_used+0x920>
   27b83:	ff d0                	callq  *%rax
   27b85:	48 89 05 34 93 03 00 	mov    %rax,0x39334(%rip)        # 60ec0 <glad_glReadPixels>
   27b8c:	48 8b 45 f8          	mov    -0x8(%rbp),%rax
   27b90:	48 8d 3d c9 5d 00 00 	lea    0x5dc9(%rip),%rdi        # 2d960 <_IO_stdin_used+0x960>
   27b97:	ff d0                	callq  *%rax
   27b99:	48 89 05 60 52 03 00 	mov    %rax,0x35260(%rip)        # 5ce00 <glad_glGetBooleanv>
   27ba0:	48 8b 45 f8          	mov    -0x8(%rbp),%rax
   27ba4:	48 8d 3d f5 5d 00 00 	lea    0x5df5(%rip),%rdi        # 2d9a0 <_IO_stdin_used+0x9a0>
   27bab:	ff d0                	callq  *%rax
   27bad:	48 89 05 cc 54 03 00 	mov    %rax,0x354cc(%rip)        # 5d080 <glad_glGetDoublev>
   27bb4:	48 8b 45 f8          	mov    -0x8(%rbp),%rax
   27bb8:	48 8d 3d 21 5e 00 00 	lea    0x5e21(%rip),%rdi        # 2d9e0 <_IO_stdin_used+0x9e0>
   27bbf:	ff d0                	callq  *%rax
   27bc1:	48 89 05 f8 54 03 00 	mov    %rax,0x354f8(%rip)        # 5d0c0 <glad_glGetError>
   27bc8:	48 8b 45 f8          	mov    -0x8(%rbp),%rax
   27bcc:	48 8d 3d 4d 5e 00 00 	lea    0x5e4d(%rip),%rdi        # 2da20 <_IO_stdin_used+0xa20>
   27bd3:	ff d0                	callq  *%rax
   27bd5:	48 89 05 64 55 03 00 	mov    %rax,0x35564(%rip)        # 5d140 <glad_glGetFloatv>
   27bdc:	48 8b 45 f8          	mov    -0x8(%rbp),%rax
   27be0:	48 8d 3d 79 5e 00 00 	lea    0x5e79(%rip),%rdi        # 2da60 <_IO_stdin_used+0xa60>
   27be7:	ff d0                	callq  *%rax
   27be9:	48 89 05 90 57 03 00 	mov    %rax,0x35790(%rip)        # 5d380 <glad_glGetIntegerv>
   27bf0:	48 8b 45 f8          	mov    -0x8(%rbp),%rax
   27bf4:	48 8d 3d a5 5e 00 00 	lea    0x5ea5(%rip),%rdi        # 2daa0 <_IO_stdin_used+0xaa0>
   27bfb:	ff d0                	callq  *%rax
   27bfd:	48 89 05 bc 62 03 00 	mov    %rax,0x362bc(%rip)        # 5dec0 <glad_glGetString>
   27c04:	48 8b 45 f8          	mov    -0x8(%rbp),%rax
   27c08:	48 8d 3d d1 5e 00 00 	lea    0x5ed1(%rip),%rdi        # 2dae0 <_IO_stdin_used+0xae0>
   27c0f:	ff d0                	callq  *%rax
   27c11:	48 89 05 e8 63 03 00 	mov    %rax,0x363e8(%rip)        # 5e000 <glad_glGetTexImage>
   27c18:	48 8b 45 f8          	mov    -0x8(%rbp),%rax
   27c1c:	48 8d 3d fd 5e 00 00 	lea    0x5efd(%rip),%rdi        # 2db20 <_IO_stdin_used+0xb20>
   27c23:	ff d0                	callq  *%rax
   27c25:	48 89 05 14 65 03 00 	mov    %rax,0x36514(%rip)        # 5e140 <glad_glGetTexParameterfv>
   27c2c:	48 8b 45 f8          	mov    -0x8(%rbp),%rax
   27c30:	48 8d 3d 29 5f 00 00 	lea    0x5f29(%rip),%rdi        # 2db60 <_IO_stdin_used+0xb60>
   27c37:	ff d0                	callq  *%rax
   27c39:	48 89 05 40 65 03 00 	mov    %rax,0x36540(%rip)        # 5e180 <glad_glGetTexParameteriv>
   27c40:	48 8b 45 f8          	mov    -0x8(%rbp),%rax
   27c44:	48 8d 3d 55 5f 00 00 	lea    0x5f55(%rip),%rdi        # 2dba0 <_IO_stdin_used+0xba0>
   27c4b:	ff d0                	callq  *%rax
   27c4d:	48 89 05 ec 63 03 00 	mov    %rax,0x363ec(%rip)        # 5e040 <glad_glGetTexLevelParameterfv>
   27c54:	48 8b 45 f8          	mov    -0x8(%rbp),%rax
   27c58:	48 8d 3d 81 5f 00 00 	lea    0x5f81(%rip),%rdi        # 2dbe0 <_IO_stdin_used+0xbe0>
   27c5f:	ff d0                	callq  *%rax
   27c61:	48 89 05 18 64 03 00 	mov    %rax,0x36418(%rip)        # 5e080 <glad_glGetTexLevelParameteriv>
   27c68:	48 8b 45 f8          	mov    -0x8(%rbp),%rax
   27c6c:	48 8d 3d ad 5f 00 00 	lea    0x5fad(%rip),%rdi        # 2dc20 <_IO_stdin_used+0xc20>
   27c73:	ff d0                	callq  *%rax
   27c75:	48 89 05 c4 73 03 00 	mov    %rax,0x373c4(%rip)        # 5f040 <glad_glIsEnabled>
   27c7c:	48 8b 45 f8          	mov    -0x8(%rbp),%rax
   27c80:	48 8d 3d d9 5f 00 00 	lea    0x5fd9(%rip),%rdi        # 2dc60 <_IO_stdin_used+0xc60>
   27c87:	ff d0                	callq  *%rax
   27c89:	48 89 05 b0 3e 03 00 	mov    %rax,0x33eb0(%rip)        # 5bb40 <glad_glDepthRange>
   27c90:	48 8b 45 f8          	mov    -0x8(%rbp),%rax
   27c94:	48 8d 3d 05 60 00 00 	lea    0x6005(%rip),%rdi        # 2dca0 <_IO_stdin_used+0xca0>
   27c9b:	ff d0                	callq  *%rax
   27c9d:	48 89 05 1c cc 03 00 	mov    %rax,0x3cc1c(%rip)        # 648c0 <glad_glViewport>
   27ca4:	eb 01                	jmp    27ca7 <_ZL19load_GL_VERSION_1_0PFPvPKcE+0x3dd>
   27ca6:	90                   	nop
   27ca7:	c9                   	leaveq 
   27ca8:	c3                   	retq   

0000000000027ca9 <_ZL19load_GL_VERSION_1_1PFPvPKcE>:
   27ca9:	55                   	push   %rbp
   27caa:	48 89 e5             	mov    %rsp,%rbp
   27cad:	48 83 ec 10          	sub    $0x10,%rsp
   27cb1:	48 89 7d f8          	mov    %rdi,-0x8(%rbp)
   27cb5:	8b 05 45 1b 03 00    	mov    0x31b45(%rip),%eax        # 59800 <GLAD_GL_VERSION_1_1>
   27cbb:	85 c0                	test   %eax,%eax
   27cbd:	0f 84 06 01 00 00    	je     27dc9 <_ZL19load_GL_VERSION_1_1PFPvPKcE+0x120>
   27cc3:	48 8b 45 f8          	mov    -0x8(%rbp),%rax
   27cc7:	48 8d 3d 12 60 00 00 	lea    0x6012(%rip),%rdi        # 2dce0 <_IO_stdin_used+0xce0>
   27cce:	ff d0                	callq  *%rax
   27cd0:	48 89 05 29 41 03 00 	mov    %rax,0x34129(%rip)        # 5be00 <glad_glDrawArrays>
   27cd7:	48 8b 45 f8          	mov    -0x8(%rbp),%rax
   27cdb:	48 8d 3d 3e 60 00 00 	lea    0x603e(%rip),%rdi        # 2dd20 <_IO_stdin_used+0xd20>
   27ce2:	ff d0                	callq  *%rax
   27ce4:	48 89 05 95 42 03 00 	mov    %rax,0x34295(%rip)        # 5bf80 <glad_glDrawElements>
   27ceb:	48 8b 45 f8          	mov    -0x8(%rbp),%rax
   27cef:	48 8d 3d 6a 60 00 00 	lea    0x606a(%rip),%rdi        # 2dd60 <_IO_stdin_used+0xd60>
   27cf6:	ff d0                	callq  *%rax
   27cf8:	48 89 05 01 83 03 00 	mov    %rax,0x38301(%rip)        # 60000 <glad_glPolygonOffset>
   27cff:	48 8b 45 f8          	mov    -0x8(%rbp),%rax
   27d03:	48 8d 3d 96 60 00 00 	lea    0x6096(%rip),%rdi        # 2dda0 <_IO_stdin_used+0xda0>
   27d0a:	ff d0                	callq  *%rax
   27d0c:	48 89 05 ad 34 03 00 	mov    %rax,0x334ad(%rip)        # 5b1c0 <glad_glCopyTexImage1D>
   27d13:	48 8b 45 f8          	mov    -0x8(%rbp),%rax
   27d17:	48 8d 3d c2 60 00 00 	lea    0x60c2(%rip),%rdi        # 2dde0 <_IO_stdin_used+0xde0>
   27d1e:	ff d0                	callq  *%rax
   27d20:	48 89 05 d9 34 03 00 	mov    %rax,0x334d9(%rip)        # 5b200 <glad_glCopyTexImage2D>
   27d27:	48 8b 45 f8          	mov    -0x8(%rbp),%rax
   27d2b:	48 8d 3d ee 60 00 00 	lea    0x60ee(%rip),%rdi        # 2de20 <_IO_stdin_used+0xe20>
   27d32:	ff d0                	callq  *%rax
   27d34:	48 89 05 05 35 03 00 	mov    %rax,0x33505(%rip)        # 5b240 <glad_glCopyTexSubImage1D>
   27d3b:	48 8b 45 f8          	mov    -0x8(%rbp),%rax
   27d3f:	48 8d 3d 1a 61 00 00 	lea    0x611a(%rip),%rdi        # 2de60 <_IO_stdin_used+0xe60>
   27d46:	ff d0                	callq  *%rax
   27d48:	48 89 05 31 35 03 00 	mov    %rax,0x33531(%rip)        # 5b280 <glad_glCopyTexSubImage2D>
   27d4f:	48 8b 45 f8          	mov    -0x8(%rbp),%rax
   27d53:	48 8d 3d 46 61 00 00 	lea    0x6146(%rip),%rdi        # 2dea0 <_IO_stdin_used+0xea0>
   27d5a:	ff d0                	callq  *%rax
   27d5c:	48 89 05 1d 9f 03 00 	mov    %rax,0x39f1d(%rip)        # 61c80 <glad_glTexSubImage1D>
   27d63:	48 8b 45 f8          	mov    -0x8(%rbp),%rax
   27d67:	48 8d 3d 72 61 00 00 	lea    0x6172(%rip),%rdi        # 2dee0 <_IO_stdin_used+0xee0>
   27d6e:	ff d0                	callq  *%rax
   27d70:	48 89 05 49 9f 03 00 	mov    %rax,0x39f49(%rip)        # 61cc0 <glad_glTexSubImage2D>
   27d77:	48 8b 45 f8          	mov    -0x8(%rbp),%rax
   27d7b:	48 8d 3d 9e 61 00 00 	lea    0x619e(%rip),%rdi        # 2df20 <_IO_stdin_used+0xf20>
   27d82:	ff d0                	callq  *%rax
   27d84:	48 89 05 35 24 03 00 	mov    %rax,0x32435(%rip)        # 5a1c0 <glad_glBindTexture>
   27d8b:	48 8b 45 f8          	mov    -0x8(%rbp),%rax
   27d8f:	48 8d 3d ca 61 00 00 	lea    0x61ca(%rip),%rdi        # 2df60 <_IO_stdin_used+0xf60>
   27d96:	ff d0                	callq  *%rax
   27d98:	48 89 05 61 3c 03 00 	mov    %rax,0x33c61(%rip)        # 5ba00 <glad_glDeleteTextures>
   27d9f:	48 8b 45 f8          	mov    -0x8(%rbp),%rax
   27da3:	48 8d 3d f6 61 00 00 	lea    0x61f6(%rip),%rdi        # 2dfa0 <_IO_stdin_used+0xfa0>
   27daa:	ff d0                	callq  *%rax
   27dac:	48 89 05 cd 4b 03 00 	mov    %rax,0x34bcd(%rip)        # 5c980 <glad_glGenTextures>
   27db3:	48 8b 45 f8          	mov    -0x8(%rbp),%rax
   27db7:	48 8d 3d 22 62 00 00 	lea    0x6222(%rip),%rdi        # 2dfe0 <_IO_stdin_used+0xfe0>
   27dbe:	ff d0                	callq  *%rax
   27dc0:	48 89 05 f9 74 03 00 	mov    %rax,0x374f9(%rip)        # 5f2c0 <glad_glIsTexture>
   27dc7:	eb 01                	jmp    27dca <_ZL19load_GL_VERSION_1_1PFPvPKcE+0x121>
   27dc9:	90                   	nop
   27dca:	c9                   	leaveq 
   27dcb:	c3                   	retq   

0000000000027dcc <_ZL19load_GL_VERSION_1_2PFPvPKcE>:
   27dcc:	55                   	push   %rbp
   27dcd:	48 89 e5             	mov    %rsp,%rbp
   27dd0:	48 83 ec 10          	sub    $0x10,%rsp
   27dd4:	48 89 7d f8          	mov    %rdi,-0x8(%rbp)
   27dd8:	8b 05 62 1a 03 00    	mov    0x31a62(%rip),%eax        # 59840 <GLAD_GL_VERSION_1_2>
   27dde:	85 c0                	test   %eax,%eax
   27de0:	74 52                	je     27e34 <_ZL19load_GL_VERSION_1_2PFPvPKcE+0x68>
   27de2:	48 8b 45 f8          	mov    -0x8(%rbp),%rax
   27de6:	48 8d 3d 33 62 00 00 	lea    0x6233(%rip),%rdi        # 2e020 <_IO_stdin_used+0x1020>
   27ded:	ff d0                	callq  *%rax
   27def:	48 89 05 4a 43 03 00 	mov    %rax,0x3434a(%rip)        # 5c140 <glad_glDrawRangeElements>
   27df6:	48 8b 45 f8          	mov    -0x8(%rbp),%rax
   27dfa:	48 8d 3d 5f 62 00 00 	lea    0x625f(%rip),%rdi        # 2e060 <_IO_stdin_used+0x1060>
   27e01:	ff d0                	callq  *%rax
   27e03:	48 89 05 36 9b 03 00 	mov    %rax,0x39b36(%rip)        # 61940 <glad_glTexImage3D>
   27e0a:	48 8b 45 f8          	mov    -0x8(%rbp),%rax
   27e0e:	48 8d 3d 8b 62 00 00 	lea    0x628b(%rip),%rdi        # 2e0a0 <_IO_stdin_used+0x10a0>
   27e15:	ff d0                	callq  *%rax
   27e17:	48 89 05 e2 9e 03 00 	mov    %rax,0x39ee2(%rip)        # 61d00 <glad_glTexSubImage3D>
   27e1e:	48 8b 45 f8          	mov    -0x8(%rbp),%rax
   27e22:	48 8d 3d b7 62 00 00 	lea    0x62b7(%rip),%rdi        # 2e0e0 <_IO_stdin_used+0x10e0>
   27e29:	ff d0                	callq  *%rax
   27e2b:	48 89 05 8e 34 03 00 	mov    %rax,0x3348e(%rip)        # 5b2c0 <glad_glCopyTexSubImage3D>
   27e32:	eb 01                	jmp    27e35 <_ZL19load_GL_VERSION_1_2PFPvPKcE+0x69>
   27e34:	90                   	nop
   27e35:	c9                   	leaveq 
   27e36:	c3                   	retq   

0000000000027e37 <_ZL19load_GL_VERSION_1_3PFPvPKcE>:
   27e37:	55                   	push   %rbp
   27e38:	48 89 e5             	mov    %rsp,%rbp
   27e3b:	48 83 ec 10          	sub    $0x10,%rsp
   27e3f:	48 89 7d f8          	mov    %rdi,-0x8(%rbp)
   27e43:	8b 05 37 1a 03 00    	mov    0x31a37(%rip),%eax        # 59880 <GLAD_GL_VERSION_1_3>
   27e49:	85 c0                	test   %eax,%eax
   27e4b:	0f 84 b6 00 00 00    	je     27f07 <_ZL19load_GL_VERSION_1_3PFPvPKcE+0xd0>
   27e51:	48 8b 45 f8          	mov    -0x8(%rbp),%rax
   27e55:	48 8d 3d c4 62 00 00 	lea    0x62c4(%rip),%rdi        # 2e120 <_IO_stdin_used+0x1120>
   27e5c:	ff d0                	callq  *%rax
   27e5e:	48 89 05 1b 1e 03 00 	mov    %rax,0x31e1b(%rip)        # 59c80 <glad_glActiveTexture>
   27e65:	48 8b 45 f8          	mov    -0x8(%rbp),%rax
   27e69:	48 8d 3d f0 62 00 00 	lea    0x62f0(%rip),%rdi        # 2e160 <_IO_stdin_used+0x1160>
   27e70:	ff d0                	callq  *%rax
   27e72:	48 89 05 c7 91 03 00 	mov    %rax,0x391c7(%rip)        # 61040 <glad_glSampleCoverage>
   27e79:	48 8b 45 f8          	mov    -0x8(%rbp),%rax
   27e7d:	48 8d 3d 1c 63 00 00 	lea    0x631c(%rip),%rdi        # 2e1a0 <_IO_stdin_used+0x11a0>
   27e84:	ff d0                	callq  *%rax
   27e86:	48 89 05 b3 30 03 00 	mov    %rax,0x330b3(%rip)        # 5af40 <glad_glCompressedTexImage3D>
   27e8d:	48 8b 45 f8          	mov    -0x8(%rbp),%rax
   27e91:	48 8d 3d 48 63 00 00 	lea    0x6348(%rip),%rdi        # 2e1e0 <_IO_stdin_used+0x11e0>
   27e98:	ff d0                	callq  *%rax
   27e9a:	48 89 05 5f 30 03 00 	mov    %rax,0x3305f(%rip)        # 5af00 <glad_glCompressedTexImage2D>
   27ea1:	48 8b 45 f8          	mov    -0x8(%rbp),%rax
   27ea5:	48 8d 3d 74 63 00 00 	lea    0x6374(%rip),%rdi        # 2e220 <_IO_stdin_used+0x1220>
   27eac:	ff d0                	callq  *%rax
   27eae:	48 89 05 0b 30 03 00 	mov    %rax,0x3300b(%rip)        # 5aec0 <glad_glCompressedTexImage1D>
   27eb5:	48 8b 45 f8          	mov    -0x8(%rbp),%rax
   27eb9:	48 8d 3d a0 63 00 00 	lea    0x63a0(%rip),%rdi        # 2e260 <_IO_stdin_used+0x1260>
   27ec0:	ff d0                	callq  *%rax
   27ec2:	48 89 05 37 31 03 00 	mov    %rax,0x33137(%rip)        # 5b000 <glad_glCompressedTexSubImage3D>
   27ec9:	48 8b 45 f8          	mov    -0x8(%rbp),%rax
   27ecd:	48 8d 3d cc 63 00 00 	lea    0x63cc(%rip),%rdi        # 2e2a0 <_IO_stdin_used+0x12a0>
   27ed4:	ff d0                	callq  *%rax
   27ed6:	48 89 05 e3 30 03 00 	mov    %rax,0x330e3(%rip)        # 5afc0 <glad_glCompressedTexSubImage2D>
   27edd:	48 8b 45 f8          	mov    -0x8(%rbp),%rax
   27ee1:	48 8d 3d f8 63 00 00 	lea    0x63f8(%rip),%rdi        # 2e2e0 <_IO_stdin_used+0x12e0>
   27ee8:	ff d0                	callq  *%rax
   27eea:	48 89 05 8f 30 03 00 	mov    %rax,0x3308f(%rip)        # 5af80 <glad_glCompressedTexSubImage1D>
   27ef1:	48 8b 45 f8          	mov    -0x8(%rbp),%rax
   27ef5:	48 8d 3d 24 64 00 00 	lea    0x6424(%rip),%rdi        # 2e320 <_IO_stdin_used+0x1320>
   27efc:	ff d0                	callq  *%rax
   27efe:	48 89 05 3b 50 03 00 	mov    %rax,0x3503b(%rip)        # 5cf40 <glad_glGetCompressedTexImage>
   27f05:	eb 01                	jmp    27f08 <_ZL19load_GL_VERSION_1_3PFPvPKcE+0xd1>
   27f07:	90                   	nop
   27f08:	c9                   	leaveq 
   27f09:	c3                   	retq   

0000000000027f0a <_ZL19load_GL_VERSION_1_4PFPvPKcE>:
   27f0a:	55                   	push   %rbp
   27f0b:	48 89 e5             	mov    %rsp,%rbp
   27f0e:	48 83 ec 10          	sub    $0x10,%rsp
   27f12:	48 89 7d f8          	mov    %rdi,-0x8(%rbp)
   27f16:	8b 05 a4 19 03 00    	mov    0x319a4(%rip),%eax        # 598c0 <GLAD_GL_VERSION_1_4>
   27f1c:	85 c0                	test   %eax,%eax
   27f1e:	0f 84 b6 00 00 00    	je     27fda <_ZL19load_GL_VERSION_1_4PFPvPKcE+0xd0>
   27f24:	48 8b 45 f8          	mov    -0x8(%rbp),%rax
   27f28:	48 8d 3d 31 64 00 00 	lea    0x6431(%rip),%rdi        # 2e360 <_IO_stdin_used+0x1360>
   27f2f:	ff d0                	callq  *%rax
   27f31:	48 89 05 c8 25 03 00 	mov    %rax,0x325c8(%rip)        # 5a500 <glad_glBlendFuncSeparate>
   27f38:	48 8b 45 f8          	mov    -0x8(%rbp),%rax
   27f3c:	48 8d 3d 5d 64 00 00 	lea    0x645d(%rip),%rdi        # 2e3a0 <_IO_stdin_used+0x13a0>
   27f43:	ff d0                	callq  *%rax
   27f45:	48 89 05 b4 76 03 00 	mov    %rax,0x376b4(%rip)        # 5f600 <glad_glMultiDrawArrays>
   27f4c:	48 8b 45 f8          	mov    -0x8(%rbp),%rax
   27f50:	48 8d 3d 89 64 00 00 	lea    0x6489(%rip),%rdi        # 2e3e0 <_IO_stdin_used+0x13e0>
   27f57:	ff d0                	callq  *%rax
   27f59:	48 89 05 20 77 03 00 	mov    %rax,0x37720(%rip)        # 5f680 <glad_glMultiDrawElements>
   27f60:	48 8b 45 f8          	mov    -0x8(%rbp),%rax
   27f64:	48 8d 3d b5 64 00 00 	lea    0x64b5(%rip),%rdi        # 2e420 <_IO_stdin_used+0x1420>
   27f6b:	ff d0                	callq  *%rax
   27f6d:	48 89 05 0c 7f 03 00 	mov    %rax,0x37f0c(%rip)        # 5fe80 <glad_glPointParameterf>
   27f74:	48 8b 45 f8          	mov    -0x8(%rbp),%rax
   27f78:	48 8d 3d e1 64 00 00 	lea    0x64e1(%rip),%rdi        # 2e460 <_IO_stdin_used+0x1460>
   27f7f:	ff d0                	callq  *%rax
   27f81:	48 89 05 38 7f 03 00 	mov    %rax,0x37f38(%rip)        # 5fec0 <glad_glPointParameterfv>
   27f88:	48 8b 45 f8          	mov    -0x8(%rbp),%rax
   27f8c:	48 8d 3d 0d 65 00 00 	lea    0x650d(%rip),%rdi        # 2e4a0 <_IO_stdin_used+0x14a0>
   27f93:	ff d0                	callq  *%rax
   27f95:	48 89 05 64 7f 03 00 	mov    %rax,0x37f64(%rip)        # 5ff00 <glad_glPointParameteri>
   27f9c:	48 8b 45 f8          	mov    -0x8(%rbp),%rax
   27fa0:	48 8d 3d 39 65 00 00 	lea    0x6539(%rip),%rdi        # 2e4e0 <_IO_stdin_used+0x14e0>
   27fa7:	ff d0                	callq  *%rax
   27fa9:	48 89 05 90 7f 03 00 	mov    %rax,0x37f90(%rip)        # 5ff40 <glad_glPointParameteriv>
   27fb0:	48 8b 45 f8          	mov    -0x8(%rbp),%rax
   27fb4:	48 8d 3d 65 65 00 00 	lea    0x6565(%rip),%rdi        # 2e520 <_IO_stdin_used+0x1520>
   27fbb:	ff d0                	callq  *%rax
   27fbd:	48 89 05 bc 23 03 00 	mov    %rax,0x323bc(%rip)        # 5a380 <glad_glBlendColor>
   27fc4:	48 8b 45 f8          	mov    -0x8(%rbp),%rax
   27fc8:	48 8d 3d 91 65 00 00 	lea    0x6591(%rip),%rdi        # 2e560 <_IO_stdin_used+0x1560>
   27fcf:	ff d0                	callq  *%rax
   27fd1:	48 89 05 e8 23 03 00 	mov    %rax,0x323e8(%rip)        # 5a3c0 <glad_glBlendEquation>
   27fd8:	eb 01                	jmp    27fdb <_ZL19load_GL_VERSION_1_4PFPvPKcE+0xd1>
   27fda:	90                   	nop
   27fdb:	c9                   	leaveq 
   27fdc:	c3                   	retq   

0000000000027fdd <_ZL19load_GL_VERSION_1_5PFPvPKcE>:
   27fdd:	55                   	push   %rbp
   27fde:	48 89 e5             	mov    %rsp,%rbp
   27fe1:	48 83 ec 10          	sub    $0x10,%rsp
   27fe5:	48 89 7d f8          	mov    %rdi,-0x8(%rbp)
   27fe9:	8b 05 11 19 03 00    	mov    0x31911(%rip),%eax        # 59900 <GLAD_GL_VERSION_1_5>
   27fef:	85 c0                	test   %eax,%eax
   27ff1:	0f 84 7e 01 00 00    	je     28175 <_ZL19load_GL_VERSION_1_5PFPvPKcE+0x198>
   27ff7:	48 8b 45 f8          	mov    -0x8(%rbp),%rax
   27ffb:	48 8d 3d 9e 65 00 00 	lea    0x659e(%rip),%rdi        # 2e5a0 <_IO_stdin_used+0x15a0>
   28002:	ff d0                	callq  *%rax
   28004:	48 89 05 b5 48 03 00 	mov    %rax,0x348b5(%rip)        # 5c8c0 <glad_glGenQueries>
   2800b:	48 8b 45 f8          	mov    -0x8(%rbp),%rax
   2800f:	48 8d 3d ca 65 00 00 	lea    0x65ca(%rip),%rdi        # 2e5e0 <_IO_stdin_used+0x15e0>
   28016:	ff d0                	callq  *%rax
   28018:	48 89 05 a1 38 03 00 	mov    %rax,0x338a1(%rip)        # 5b8c0 <glad_glDeleteQueries>
   2801f:	48 8b 45 f8          	mov    -0x8(%rbp),%rax
   28023:	48 8d 3d f6 65 00 00 	lea    0x65f6(%rip),%rdi        # 2e620 <_IO_stdin_used+0x1620>
   2802a:	ff d0                	callq  *%rax
   2802c:	48 89 05 4d 71 03 00 	mov    %rax,0x3714d(%rip)        # 5f180 <glad_glIsQuery>
   28033:	48 8b 45 f8          	mov    -0x8(%rbp),%rax
   28037:	48 8d 3d 22 66 00 00 	lea    0x6622(%rip),%rdi        # 2e660 <_IO_stdin_used+0x1660>
   2803e:	ff d0                	callq  *%rax
   28040:	48 89 05 f9 1c 03 00 	mov    %rax,0x31cf9(%rip)        # 59d40 <glad_glBeginQuery>
   28047:	48 8b 45 f8          	mov    -0x8(%rbp),%rax
   2804b:	48 8d 3d 4e 66 00 00 	lea    0x664e(%rip),%rdi        # 2e6a0 <_IO_stdin_used+0x16a0>
   28052:	ff d0                	callq  *%rax
   28054:	48 89 05 a5 43 03 00 	mov    %rax,0x343a5(%rip)        # 5c400 <glad_glEndQuery>
   2805b:	48 8b 45 f8          	mov    -0x8(%rbp),%rax
   2805f:	48 8d 3d 7a 66 00 00 	lea    0x667a(%rip),%rdi        # 2e6e0 <_IO_stdin_used+0x16e0>
   28066:	ff d0                	callq  *%rax
   28068:	48 89 05 d1 5b 03 00 	mov    %rax,0x35bd1(%rip)        # 5dc40 <glad_glGetQueryiv>
   2806f:	48 8b 45 f8          	mov    -0x8(%rbp),%rax
   28073:	48 8d 3d a6 66 00 00 	lea    0x66a6(%rip),%rdi        # 2e720 <_IO_stdin_used+0x1720>
   2807a:	ff d0                	callq  *%rax
   2807c:	48 89 05 fd 5a 03 00 	mov    %rax,0x35afd(%rip)        # 5db80 <glad_glGetQueryObjectiv>
   28083:	48 8b 45 f8          	mov    -0x8(%rbp),%rax
   28087:	48 8d 3d d2 66 00 00 	lea    0x66d2(%rip),%rdi        # 2e760 <_IO_stdin_used+0x1760>
   2808e:	ff d0                	callq  *%rax
   28090:	48 89 05 69 5b 03 00 	mov    %rax,0x35b69(%rip)        # 5dc00 <glad_glGetQueryObjectuiv>
   28097:	48 8b 45 f8          	mov    -0x8(%rbp),%rax
   2809b:	48 8d 3d fe 66 00 00 	lea    0x66fe(%rip),%rdi        # 2e7a0 <_IO_stdin_used+0x17a0>
   280a2:	ff d0                	callq  *%rax
   280a4:	48 89 05 95 1d 03 00 	mov    %rax,0x31d95(%rip)        # 59e40 <glad_glBindBuffer>
   280ab:	48 8b 45 f8          	mov    -0x8(%rbp),%rax
   280af:	48 8d 3d 2a 67 00 00 	lea    0x672a(%rip),%rdi        # 2e7e0 <_IO_stdin_used+0x17e0>
   280b6:	ff d0                	callq  *%rax
   280b8:	48 89 05 01 37 03 00 	mov    %rax,0x33701(%rip)        # 5b7c0 <glad_glDeleteBuffers>
   280bf:	48 8b 45 f8          	mov    -0x8(%rbp),%rax
   280c3:	48 8d 3d 56 67 00 00 	lea    0x6756(%rip),%rdi        # 2e820 <_IO_stdin_used+0x1820>
   280ca:	ff d0                	callq  *%rax
   280cc:	48 89 05 2d 47 03 00 	mov    %rax,0x3472d(%rip)        # 5c800 <glad_glGenBuffers>
   280d3:	48 8b 45 f8          	mov    -0x8(%rbp),%rax
   280d7:	48 8d 3d 82 67 00 00 	lea    0x6782(%rip),%rdi        # 2e860 <_IO_stdin_used+0x1860>
   280de:	ff d0                	callq  *%rax
   280e0:	48 89 05 19 6f 03 00 	mov    %rax,0x36f19(%rip)        # 5f000 <glad_glIsBuffer>
   280e7:	48 8b 45 f8          	mov    -0x8(%rbp),%rax
   280eb:	48 8d 3d ae 67 00 00 	lea    0x67ae(%rip),%rdi        # 2e8a0 <_IO_stdin_used+0x18a0>
   280f2:	ff d0                	callq  *%rax
   280f4:	48 89 05 45 25 03 00 	mov    %rax,0x32545(%rip)        # 5a640 <glad_glBufferData>
   280fb:	48 8b 45 f8          	mov    -0x8(%rbp),%rax
   280ff:	48 8d 3d da 67 00 00 	lea    0x67da(%rip),%rdi        # 2e8e0 <_IO_stdin_used+0x18e0>
   28106:	ff d0                	callq  *%rax
   28108:	48 89 05 b1 25 03 00 	mov    %rax,0x325b1(%rip)        # 5a6c0 <glad_glBufferSubData>
   2810f:	48 8b 45 f8          	mov    -0x8(%rbp),%rax
   28113:	48 8d 3d 06 68 00 00 	lea    0x6806(%rip),%rdi        # 2e920 <_IO_stdin_used+0x1920>
   2811a:	ff d0                	callq  *%rax
   2811c:	48 89 05 dd 4d 03 00 	mov    %rax,0x34ddd(%rip)        # 5cf00 <glad_glGetBufferSubData>
   28123:	48 8b 45 f8          	mov    -0x8(%rbp),%rax
   28127:	48 8d 3d 32 68 00 00 	lea    0x6832(%rip),%rdi        # 2e960 <_IO_stdin_used+0x1960>
   2812e:	ff d0                	callq  *%rax
   28130:	48 89 05 09 73 03 00 	mov    %rax,0x37309(%rip)        # 5f440 <glad_glMapBuffer>
   28137:	48 8b 45 f8          	mov    -0x8(%rbp),%rax
   2813b:	48 8d 3d 5e 68 00 00 	lea    0x685e(%rip),%rdi        # 2e9a0 <_IO_stdin_used+0x19a0>
   28142:	ff d0                	callq  *%rax
   28144:	48 89 05 35 ae 03 00 	mov    %rax,0x3ae35(%rip)        # 62f80 <glad_glUnmapBuffer>
   2814b:	48 8b 45 f8          	mov    -0x8(%rbp),%rax
   2814f:	48 8d 3d 8a 68 00 00 	lea    0x688a(%rip),%rdi        # 2e9e0 <_IO_stdin_used+0x19e0>
   28156:	ff d0                	callq  *%rax
   28158:	48 89 05 21 4d 03 00 	mov    %rax,0x34d21(%rip)        # 5ce80 <glad_glGetBufferParameteriv>
   2815f:	48 8b 45 f8          	mov    -0x8(%rbp),%rax
   28163:	48 8d 3d b6 68 00 00 	lea    0x68b6(%rip),%rdi        # 2ea20 <_IO_stdin_used+0x1a20>
   2816a:	ff d0                	callq  *%rax
   2816c:	48 89 05 4d 4d 03 00 	mov    %rax,0x34d4d(%rip)        # 5cec0 <glad_glGetBufferPointerv>
   28173:	eb 01                	jmp    28176 <_ZL19load_GL_VERSION_1_5PFPvPKcE+0x199>
   28175:	90                   	nop
   28176:	c9                   	leaveq 
   28177:	c3                   	retq   

0000000000028178 <_ZL19load_GL_VERSION_2_0PFPvPKcE>:
   28178:	55                   	push   %rbp
   28179:	48 89 e5             	mov    %rsp,%rbp
   2817c:	48 83 ec 10          	sub    $0x10,%rsp
   28180:	48 89 7d f8          	mov    %rdi,-0x8(%rbp)
   28184:	8b 05 b6 17 03 00    	mov    0x317b6(%rip),%eax        # 59940 <GLAD_GL_VERSION_2_0>
   2818a:	85 c0                	test   %eax,%eax
   2818c:	0f 84 46 07 00 00    	je     288d8 <_ZL19load_GL_VERSION_2_0PFPvPKcE+0x760>
   28192:	48 8b 45 f8          	mov    -0x8(%rbp),%rax
   28196:	48 8d 3d c3 68 00 00 	lea    0x68c3(%rip),%rdi        # 2ea60 <_IO_stdin_used+0x1a60>
   2819d:	ff d0                	callq  *%rax
   2819f:	48 89 05 5a 22 03 00 	mov    %rax,0x3225a(%rip)        # 5a400 <glad_glBlendEquationSeparate>
   281a6:	48 8b 45 f8          	mov    -0x8(%rbp),%rax
   281aa:	48 8d 3d ef 68 00 00 	lea    0x68ef(%rip),%rdi        # 2eaa0 <_IO_stdin_used+0x1aa0>
   281b1:	ff d0                	callq  *%rax
   281b3:	48 89 05 86 3d 03 00 	mov    %rax,0x33d86(%rip)        # 5bf40 <glad_glDrawBuffers>
   281ba:	48 8b 45 f8          	mov    -0x8(%rbp),%rax
   281be:	48 8d 3d 1b 69 00 00 	lea    0x691b(%rip),%rdi        # 2eae0 <_IO_stdin_used+0x1ae0>
   281c5:	ff d0                	callq  *%rax
   281c7:	48 89 05 f2 93 03 00 	mov    %rax,0x393f2(%rip)        # 615c0 <glad_glStencilOpSeparate>
   281ce:	48 8b 45 f8          	mov    -0x8(%rbp),%rax
   281d2:	48 8d 3d 47 69 00 00 	lea    0x6947(%rip),%rdi        # 2eb20 <_IO_stdin_used+0x1b20>
   281d9:	ff d0                	callq  *%rax
   281db:	48 89 05 de 92 03 00 	mov    %rax,0x392de(%rip)        # 614c0 <glad_glStencilFuncSeparate>
   281e2:	48 8b 45 f8          	mov    -0x8(%rbp),%rax
   281e6:	48 8d 3d 73 69 00 00 	lea    0x6973(%rip),%rdi        # 2eb60 <_IO_stdin_used+0x1b60>
   281ed:	ff d0                	callq  *%rax
   281ef:	48 89 05 4a 93 03 00 	mov    %rax,0x3934a(%rip)        # 61540 <glad_glStencilMaskSeparate>
   281f6:	48 8b 45 f8          	mov    -0x8(%rbp),%rax
   281fa:	48 8d 3d 9f 69 00 00 	lea    0x699f(%rip),%rdi        # 2eba0 <_IO_stdin_used+0x1ba0>
   28201:	ff d0                	callq  *%rax
   28203:	48 89 05 b6 1a 03 00 	mov    %rax,0x31ab6(%rip)        # 59cc0 <glad_glAttachShader>
   2820a:	48 8b 45 f8          	mov    -0x8(%rbp),%rax
   2820e:	48 8d 3d cb 69 00 00 	lea    0x69cb(%rip),%rdi        # 2ebe0 <_IO_stdin_used+0x1be0>
   28215:	ff d0                	callq  *%rax
   28217:	48 89 05 e2 1b 03 00 	mov    %rax,0x31be2(%rip)        # 59e00 <glad_glBindAttribLocation>
   2821e:	48 8b 45 f8          	mov    -0x8(%rbp),%rax
   28222:	48 8d 3d f7 69 00 00 	lea    0x69f7(%rip),%rdi        # 2ec20 <_IO_stdin_used+0x1c20>
   28229:	ff d0                	callq  *%rax
   2822b:	48 89 05 4e 2c 03 00 	mov    %rax,0x32c4e(%rip)        # 5ae80 <glad_glCompileShader>
   28232:	48 8b 45 f8          	mov    -0x8(%rbp),%rax
   28236:	48 8d 3d 23 6a 00 00 	lea    0x6a23(%rip),%rdi        # 2ec60 <_IO_stdin_used+0x1c60>
   2823d:	ff d0                	callq  *%rax
   2823f:	48 89 05 fa 31 03 00 	mov    %rax,0x331fa(%rip)        # 5b440 <glad_glCreateProgram>
   28246:	48 8b 45 f8          	mov    -0x8(%rbp),%rax
   2824a:	48 8d 3d 4f 6a 00 00 	lea    0x6a4f(%rip),%rdi        # 2eca0 <_IO_stdin_used+0x1ca0>
   28251:	ff d0                	callq  *%rax
   28253:	48 89 05 26 33 03 00 	mov    %rax,0x33326(%rip)        # 5b580 <glad_glCreateShader>
   2825a:	48 8b 45 f8          	mov    -0x8(%rbp),%rax
   2825e:	48 8d 3d 7b 6a 00 00 	lea    0x6a7b(%rip),%rdi        # 2ece0 <_IO_stdin_used+0x1ce0>
   28265:	ff d0                	callq  *%rax
   28267:	48 89 05 d2 35 03 00 	mov    %rax,0x335d2(%rip)        # 5b840 <glad_glDeleteProgram>
   2826e:	48 8b 45 f8          	mov    -0x8(%rbp),%rax
   28272:	48 8d 3d a7 6a 00 00 	lea    0x6aa7(%rip),%rdi        # 2ed20 <_IO_stdin_used+0x1d20>
   28279:	ff d0                	callq  *%rax
   2827b:	48 89 05 fe 36 03 00 	mov    %rax,0x336fe(%rip)        # 5b980 <glad_glDeleteShader>
   28282:	48 8b 45 f8          	mov    -0x8(%rbp),%rax
   28286:	48 8d 3d d3 6a 00 00 	lea    0x6ad3(%rip),%rdi        # 2ed60 <_IO_stdin_used+0x1d60>
   2828d:	ff d0                	callq  *%rax
   2828f:	48 89 05 aa 39 03 00 	mov    %rax,0x339aa(%rip)        # 5bc40 <glad_glDetachShader>
   28296:	48 8b 45 f8          	mov    -0x8(%rbp),%rax
   2829a:	48 8d 3d ff 6a 00 00 	lea    0x6aff(%rip),%rdi        # 2eda0 <_IO_stdin_used+0x1da0>
   282a1:	ff d0                	callq  *%rax
   282a3:	48 89 05 56 3a 03 00 	mov    %rax,0x33a56(%rip)        # 5bd00 <glad_glDisableVertexAttribArray>
   282aa:	48 8b 45 f8          	mov    -0x8(%rbp),%rax
   282ae:	48 8d 3d 2b 6b 00 00 	lea    0x6b2b(%rip),%rdi        # 2ede0 <_IO_stdin_used+0x1de0>
   282b5:	ff d0                	callq  *%rax
   282b7:	48 89 05 82 40 03 00 	mov    %rax,0x34082(%rip)        # 5c340 <glad_glEnableVertexAttribArray>
   282be:	48 8b 45 f8          	mov    -0x8(%rbp),%rax
   282c2:	48 8d 3d 57 6b 00 00 	lea    0x6b57(%rip),%rdi        # 2ee20 <_IO_stdin_used+0x1e20>
   282c9:	ff d0                	callq  *%rax
   282cb:	48 89 05 2e 48 03 00 	mov    %rax,0x3482e(%rip)        # 5cb00 <glad_glGetActiveAttrib>
   282d2:	48 8b 45 f8          	mov    -0x8(%rbp),%rax
   282d6:	48 8d 3d 83 6b 00 00 	lea    0x6b83(%rip),%rdi        # 2ee60 <_IO_stdin_used+0x1e60>
   282dd:	ff d0                	callq  *%rax
   282df:	48 89 05 1a 49 03 00 	mov    %rax,0x3491a(%rip)        # 5cc00 <glad_glGetActiveUniform>
   282e6:	48 8b 45 f8          	mov    -0x8(%rbp),%rax
   282ea:	48 8d 3d af 6b 00 00 	lea    0x6baf(%rip),%rdi        # 2eea0 <_IO_stdin_used+0x1ea0>
   282f1:	ff d0                	callq  *%rax
   282f3:	48 89 05 46 4a 03 00 	mov    %rax,0x34a46(%rip)        # 5cd40 <glad_glGetAttachedShaders>
   282fa:	48 8b 45 f8          	mov    -0x8(%rbp),%rax
   282fe:	48 8d 3d db 6b 00 00 	lea    0x6bdb(%rip),%rdi        # 2eee0 <_IO_stdin_used+0x1ee0>
   28305:	ff d0                	callq  *%rax
   28307:	48 89 05 72 4a 03 00 	mov    %rax,0x34a72(%rip)        # 5cd80 <glad_glGetAttribLocation>
   2830e:	48 8b 45 f8          	mov    -0x8(%rbp),%rax
   28312:	48 8d 3d 07 6c 00 00 	lea    0x6c07(%rip),%rdi        # 2ef20 <_IO_stdin_used+0x1f20>
   28319:	ff d0                	callq  *%rax
   2831b:	48 89 05 9e 56 03 00 	mov    %rax,0x3569e(%rip)        # 5d9c0 <glad_glGetProgramiv>
   28322:	48 8b 45 f8          	mov    -0x8(%rbp),%rax
   28326:	48 8d 3d 33 6c 00 00 	lea    0x6c33(%rip),%rdi        # 2ef60 <_IO_stdin_used+0x1f60>
   2832d:	ff d0                	callq  *%rax
   2832f:	48 89 05 0a 54 03 00 	mov    %rax,0x3540a(%rip)        # 5d740 <glad_glGetProgramInfoLog>
   28336:	48 8b 45 f8          	mov    -0x8(%rbp),%rax
   2833a:	48 8d 3d 5f 6c 00 00 	lea    0x6c5f(%rip),%rdi        # 2efa0 <_IO_stdin_used+0x1fa0>
   28341:	ff d0                	callq  *%rax
   28343:	48 89 05 36 5b 03 00 	mov    %rax,0x35b36(%rip)        # 5de80 <glad_glGetShaderiv>
   2834a:	48 8b 45 f8          	mov    -0x8(%rbp),%rax
   2834e:	48 8d 3d 8b 6c 00 00 	lea    0x6c8b(%rip),%rdi        # 2efe0 <_IO_stdin_used+0x1fe0>
   28355:	ff d0                	callq  *%rax
   28357:	48 89 05 62 5a 03 00 	mov    %rax,0x35a62(%rip)        # 5ddc0 <glad_glGetShaderInfoLog>
   2835e:	48 8b 45 f8          	mov    -0x8(%rbp),%rax
   28362:	48 8d 3d b7 6c 00 00 	lea    0x6cb7(%rip),%rdi        # 2f020 <_IO_stdin_used+0x2020>
   28369:	ff d0                	callq  *%rax
   2836b:	48 89 05 ce 5a 03 00 	mov    %rax,0x35ace(%rip)        # 5de40 <glad_glGetShaderSource>
   28372:	48 8b 45 f8          	mov    -0x8(%rbp),%rax
   28376:	48 8d 3d e3 6c 00 00 	lea    0x6ce3(%rip),%rdi        # 2f060 <_IO_stdin_used+0x2060>
   2837d:	ff d0                	callq  *%rax
   2837f:	48 89 05 ba 61 03 00 	mov    %rax,0x361ba(%rip)        # 5e540 <glad_glGetUniformLocation>
   28386:	48 8b 45 f8          	mov    -0x8(%rbp),%rax
   2838a:	48 8d 3d 0f 6d 00 00 	lea    0x6d0f(%rip),%rdi        # 2f0a0 <_IO_stdin_used+0x20a0>
   28391:	ff d0                	callq  *%rax
   28393:	48 89 05 66 62 03 00 	mov    %rax,0x36266(%rip)        # 5e600 <glad_glGetUniformfv>
   2839a:	48 8b 45 f8          	mov    -0x8(%rbp),%rax
   2839e:	48 8d 3d 3b 6d 00 00 	lea    0x6d3b(%rip),%rdi        # 2f0e0 <_IO_stdin_used+0x20e0>
   283a5:	ff d0                	callq  *%rax
   283a7:	48 89 05 92 62 03 00 	mov    %rax,0x36292(%rip)        # 5e640 <glad_glGetUniformiv>
   283ae:	48 8b 45 f8          	mov    -0x8(%rbp),%rax
   283b2:	48 8d 3d 67 6d 00 00 	lea    0x6d67(%rip),%rdi        # 2f120 <_IO_stdin_used+0x2120>
   283b9:	ff d0                	callq  *%rax
   283bb:	48 89 05 be 64 03 00 	mov    %rax,0x364be(%rip)        # 5e880 <glad_glGetVertexAttribdv>
   283c2:	48 8b 45 f8          	mov    -0x8(%rbp),%rax
   283c6:	48 8d 3d 93 6d 00 00 	lea    0x6d93(%rip),%rdi        # 2f160 <_IO_stdin_used+0x2160>
   283cd:	ff d0                	callq  *%rax
   283cf:	48 89 05 ea 64 03 00 	mov    %rax,0x364ea(%rip)        # 5e8c0 <glad_glGetVertexAttribfv>
   283d6:	48 8b 45 f8          	mov    -0x8(%rbp),%rax
   283da:	48 8d 3d bf 6d 00 00 	lea    0x6dbf(%rip),%rdi        # 2f1a0 <_IO_stdin_used+0x21a0>
   283e1:	ff d0                	callq  *%rax
   283e3:	48 89 05 16 65 03 00 	mov    %rax,0x36516(%rip)        # 5e900 <glad_glGetVertexAttribiv>
   283ea:	48 8b 45 f8          	mov    -0x8(%rbp),%rax
   283ee:	48 8d 3d eb 6d 00 00 	lea    0x6deb(%rip),%rdi        # 2f1e0 <_IO_stdin_used+0x21e0>
   283f5:	ff d0                	callq  *%rax
   283f7:	48 89 05 42 64 03 00 	mov    %rax,0x36442(%rip)        # 5e840 <glad_glGetVertexAttribPointerv>
   283fe:	48 8b 45 f8          	mov    -0x8(%rbp),%rax
   28402:	48 8d 3d 17 6e 00 00 	lea    0x6e17(%rip),%rdi        # 2f220 <_IO_stdin_used+0x2220>
   28409:	ff d0                	callq  *%rax
   2840b:	48 89 05 ee 6c 03 00 	mov    %rax,0x36cee(%rip)        # 5f100 <glad_glIsProgram>
   28412:	48 8b 45 f8          	mov    -0x8(%rbp),%rax
   28416:	48 8d 3d 43 6e 00 00 	lea    0x6e43(%rip),%rdi        # 2f260 <_IO_stdin_used+0x2260>
   2841d:	ff d0                	callq  *%rax
   2841f:	48 89 05 1a 6e 03 00 	mov    %rax,0x36e1a(%rip)        # 5f240 <glad_glIsShader>
   28426:	48 8b 45 f8          	mov    -0x8(%rbp),%rax
   2842a:	48 8d 3d 6f 6e 00 00 	lea    0x6e6f(%rip),%rdi        # 2f2a0 <_IO_stdin_used+0x22a0>
   28431:	ff d0                	callq  *%rax
   28433:	48 89 05 86 6f 03 00 	mov    %rax,0x36f86(%rip)        # 5f3c0 <glad_glLinkProgram>
   2843a:	48 8b 45 f8          	mov    -0x8(%rbp),%rax
   2843e:	48 8d 3d 9b 6e 00 00 	lea    0x6e9b(%rip),%rdi        # 2f2e0 <_IO_stdin_used+0x22e0>
   28445:	ff d0                	callq  *%rax
   28447:	48 89 05 b2 8f 03 00 	mov    %rax,0x38fb2(%rip)        # 61400 <glad_glShaderSource>
   2844e:	48 8b 45 f8          	mov    -0x8(%rbp),%rax
   28452:	48 8d 3d c7 6e 00 00 	lea    0x6ec7(%rip),%rdi        # 2f320 <_IO_stdin_used+0x2320>
   28459:	ff d0                	callq  *%rax
   2845b:	48 89 05 9e ab 03 00 	mov    %rax,0x3ab9e(%rip)        # 63000 <glad_glUseProgram>
   28462:	48 8b 45 f8          	mov    -0x8(%rbp),%rax
   28466:	48 8d 3d f3 6e 00 00 	lea    0x6ef3(%rip),%rdi        # 2f360 <_IO_stdin_used+0x2360>
   2846d:	ff d0                	callq  *%rax
   2846f:	48 89 05 8a 9e 03 00 	mov    %rax,0x39e8a(%rip)        # 62300 <glad_glUniform1f>
   28476:	48 8b 45 f8          	mov    -0x8(%rbp),%rax
   2847a:	48 8d 3d 1f 6f 00 00 	lea    0x6f1f(%rip),%rdi        # 2f3a0 <_IO_stdin_used+0x23a0>
   28481:	ff d0                	callq  *%rax
   28483:	48 89 05 76 a0 03 00 	mov    %rax,0x3a076(%rip)        # 62500 <glad_glUniform2f>
   2848a:	48 8b 45 f8          	mov    -0x8(%rbp),%rax
   2848e:	48 8d 3d 4b 6f 00 00 	lea    0x6f4b(%rip),%rdi        # 2f3e0 <_IO_stdin_used+0x23e0>
   28495:	ff d0                	callq  *%rax
   28497:	48 89 05 62 a2 03 00 	mov    %rax,0x3a262(%rip)        # 62700 <glad_glUniform3f>
   2849e:	48 8b 45 f8          	mov    -0x8(%rbp),%rax
   284a2:	48 8d 3d 77 6f 00 00 	lea    0x6f77(%rip),%rdi        # 2f420 <_IO_stdin_used+0x2420>
   284a9:	ff d0                	callq  *%rax
   284ab:	48 89 05 4e a4 03 00 	mov    %rax,0x3a44e(%rip)        # 62900 <glad_glUniform4f>
   284b2:	48 8b 45 f8          	mov    -0x8(%rbp),%rax
   284b6:	48 8d 3d a3 6f 00 00 	lea    0x6fa3(%rip),%rdi        # 2f460 <_IO_stdin_used+0x2460>
   284bd:	ff d0                	callq  *%rax
   284bf:	48 89 05 ba 9e 03 00 	mov    %rax,0x39eba(%rip)        # 62380 <glad_glUniform1i>
   284c6:	48 8b 45 f8          	mov    -0x8(%rbp),%rax
   284ca:	48 8d 3d cf 6f 00 00 	lea    0x6fcf(%rip),%rdi        # 2f4a0 <_IO_stdin_used+0x24a0>
   284d1:	ff d0                	callq  *%rax
   284d3:	48 89 05 a6 a0 03 00 	mov    %rax,0x3a0a6(%rip)        # 62580 <glad_glUniform2i>
   284da:	48 8b 45 f8          	mov    -0x8(%rbp),%rax
   284de:	48 8d 3d fb 6f 00 00 	lea    0x6ffb(%rip),%rdi        # 2f4e0 <_IO_stdin_used+0x24e0>
   284e5:	ff d0                	callq  *%rax
   284e7:	48 89 05 92 a2 03 00 	mov    %rax,0x3a292(%rip)        # 62780 <glad_glUniform3i>
   284ee:	48 8b 45 f8          	mov    -0x8(%rbp),%rax
   284f2:	48 8d 3d 27 70 00 00 	lea    0x7027(%rip),%rdi        # 2f520 <_IO_stdin_used+0x2520>
   284f9:	ff d0                	callq  *%rax
   284fb:	48 89 05 7e a4 03 00 	mov    %rax,0x3a47e(%rip)        # 62980 <glad_glUniform4i>
   28502:	48 8b 45 f8          	mov    -0x8(%rbp),%rax
   28506:	48 8d 3d 53 70 00 00 	lea    0x7053(%rip),%rdi        # 2f560 <_IO_stdin_used+0x2560>
   2850d:	ff d0                	callq  *%rax
   2850f:	48 89 05 2a 9e 03 00 	mov    %rax,0x39e2a(%rip)        # 62340 <glad_glUniform1fv>
   28516:	48 8b 45 f8          	mov    -0x8(%rbp),%rax
   2851a:	48 8d 3d 7f 70 00 00 	lea    0x707f(%rip),%rdi        # 2f5a0 <_IO_stdin_used+0x25a0>
   28521:	ff d0                	callq  *%rax
   28523:	48 89 05 16 a0 03 00 	mov    %rax,0x3a016(%rip)        # 62540 <glad_glUniform2fv>
   2852a:	48 8b 45 f8          	mov    -0x8(%rbp),%rax
   2852e:	48 8d 3d ab 70 00 00 	lea    0x70ab(%rip),%rdi        # 2f5e0 <_IO_stdin_used+0x25e0>
   28535:	ff d0                	callq  *%rax
   28537:	48 89 05 02 a2 03 00 	mov    %rax,0x3a202(%rip)        # 62740 <glad_glUniform3fv>
   2853e:	48 8b 45 f8          	mov    -0x8(%rbp),%rax
   28542:	48 8d 3d d7 70 00 00 	lea    0x70d7(%rip),%rdi        # 2f620 <_IO_stdin_used+0x2620>
   28549:	ff d0                	callq  *%rax
   2854b:	48 89 05 ee a3 03 00 	mov    %rax,0x3a3ee(%rip)        # 62940 <glad_glUniform4fv>
   28552:	48 8b 45 f8          	mov    -0x8(%rbp),%rax
   28556:	48 8d 3d 03 71 00 00 	lea    0x7103(%rip),%rdi        # 2f660 <_IO_stdin_used+0x2660>
   2855d:	ff d0                	callq  *%rax
   2855f:	48 89 05 5a 9e 03 00 	mov    %rax,0x39e5a(%rip)        # 623c0 <glad_glUniform1iv>
   28566:	48 8b 45 f8          	mov    -0x8(%rbp),%rax
   2856a:	48 8d 3d 2f 71 00 00 	lea    0x712f(%rip),%rdi        # 2f6a0 <_IO_stdin_used+0x26a0>
   28571:	ff d0                	callq  *%rax
   28573:	48 89 05 46 a0 03 00 	mov    %rax,0x3a046(%rip)        # 625c0 <glad_glUniform2iv>
   2857a:	48 8b 45 f8          	mov    -0x8(%rbp),%rax
   2857e:	48 8d 3d 5b 71 00 00 	lea    0x715b(%rip),%rdi        # 2f6e0 <_IO_stdin_used+0x26e0>
   28585:	ff d0                	callq  *%rax
   28587:	48 89 05 32 a2 03 00 	mov    %rax,0x3a232(%rip)        # 627c0 <glad_glUniform3iv>
   2858e:	48 8b 45 f8          	mov    -0x8(%rbp),%rax
   28592:	48 8d 3d 87 71 00 00 	lea    0x7187(%rip),%rdi        # 2f720 <_IO_stdin_used+0x2720>
   28599:	ff d0                	callq  *%rax
   2859b:	48 89 05 1e a4 03 00 	mov    %rax,0x3a41e(%rip)        # 629c0 <glad_glUniform4iv>
   285a2:	48 8b 45 f8          	mov    -0x8(%rbp),%rax
   285a6:	48 8d 3d b3 71 00 00 	lea    0x71b3(%rip),%rdi        # 2f760 <_IO_stdin_used+0x2760>
   285ad:	ff d0                	callq  *%rax
   285af:	48 89 05 4a a5 03 00 	mov    %rax,0x3a54a(%rip)        # 62b00 <glad_glUniformMatrix2fv>
   285b6:	48 8b 45 f8          	mov    -0x8(%rbp),%rax
   285ba:	48 8d 3d df 71 00 00 	lea    0x71df(%rip),%rdi        # 2f7a0 <_IO_stdin_used+0x27a0>
   285c1:	ff d0                	callq  *%rax
   285c3:	48 89 05 b6 a6 03 00 	mov    %rax,0x3a6b6(%rip)        # 62c80 <glad_glUniformMatrix3fv>
   285ca:	48 8b 45 f8          	mov    -0x8(%rbp),%rax
   285ce:	48 8d 3d 0b 72 00 00 	lea    0x720b(%rip),%rdi        # 2f7e0 <_IO_stdin_used+0x27e0>
   285d5:	ff d0                	callq  *%rax
   285d7:	48 89 05 22 a8 03 00 	mov    %rax,0x3a822(%rip)        # 62e00 <glad_glUniformMatrix4fv>
   285de:	48 8b 45 f8          	mov    -0x8(%rbp),%rax
   285e2:	48 8d 3d 37 72 00 00 	lea    0x7237(%rip),%rdi        # 2f820 <_IO_stdin_used+0x2820>
   285e9:	ff d0                	callq  *%rax
   285eb:	48 89 05 8e aa 03 00 	mov    %rax,0x3aa8e(%rip)        # 63080 <glad_glValidateProgram>
   285f2:	48 8b 45 f8          	mov    -0x8(%rbp),%rax
   285f6:	48 8d 3d 63 72 00 00 	lea    0x7263(%rip),%rdi        # 2f860 <_IO_stdin_used+0x2860>
   285fd:	ff d0                	callq  *%rax
   285ff:	48 89 05 fa ac 03 00 	mov    %rax,0x3acfa(%rip)        # 63300 <glad_glVertexAttrib1d>
   28606:	48 8b 45 f8          	mov    -0x8(%rbp),%rax
   2860a:	48 8d 3d 8f 72 00 00 	lea    0x728f(%rip),%rdi        # 2f8a0 <_IO_stdin_used+0x28a0>
   28611:	ff d0                	callq  *%rax
   28613:	48 89 05 26 ad 03 00 	mov    %rax,0x3ad26(%rip)        # 63340 <glad_glVertexAttrib1dv>
   2861a:	48 8b 45 f8          	mov    -0x8(%rbp),%rax
   2861e:	48 8d 3d bb 72 00 00 	lea    0x72bb(%rip),%rdi        # 2f8e0 <_IO_stdin_used+0x28e0>
   28625:	ff d0                	callq  *%rax
   28627:	48 89 05 52 ad 03 00 	mov    %rax,0x3ad52(%rip)        # 63380 <glad_glVertexAttrib1f>
   2862e:	48 8b 45 f8          	mov    -0x8(%rbp),%rax
   28632:	48 8d 3d e7 72 00 00 	lea    0x72e7(%rip),%rdi        # 2f920 <_IO_stdin_used+0x2920>
   28639:	ff d0                	callq  *%rax
   2863b:	48 89 05 7e ad 03 00 	mov    %rax,0x3ad7e(%rip)        # 633c0 <glad_glVertexAttrib1fv>
   28642:	48 8b 45 f8          	mov    -0x8(%rbp),%rax
   28646:	48 8d 3d 13 73 00 00 	lea    0x7313(%rip),%rdi        # 2f960 <_IO_stdin_used+0x2960>
   2864d:	ff d0                	callq  *%rax
   2864f:	48 89 05 aa ad 03 00 	mov    %rax,0x3adaa(%rip)        # 63400 <glad_glVertexAttrib1s>
   28656:	48 8b 45 f8          	mov    -0x8(%rbp),%rax
   2865a:	48 8d 3d 3f 73 00 00 	lea    0x733f(%rip),%rdi        # 2f9a0 <_IO_stdin_used+0x29a0>
   28661:	ff d0                	callq  *%rax
   28663:	48 89 05 d6 ad 03 00 	mov    %rax,0x3add6(%rip)        # 63440 <glad_glVertexAttrib1sv>
   2866a:	48 8b 45 f8          	mov    -0x8(%rbp),%rax
   2866e:	48 8d 3d 6b 73 00 00 	lea    0x736b(%rip),%rdi        # 2f9e0 <_IO_stdin_used+0x29e0>
   28675:	ff d0                	callq  *%rax
   28677:	48 89 05 02 ae 03 00 	mov    %rax,0x3ae02(%rip)        # 63480 <glad_glVertexAttrib2d>
   2867e:	48 8b 45 f8          	mov    -0x8(%rbp),%rax
   28682:	48 8d 3d 97 73 00 00 	lea    0x7397(%rip),%rdi        # 2fa20 <_IO_stdin_used+0x2a20>
   28689:	ff d0                	callq  *%rax
   2868b:	48 89 05 2e ae 03 00 	mov    %rax,0x3ae2e(%rip)        # 634c0 <glad_glVertexAttrib2dv>
   28692:	48 8b 45 f8          	mov    -0x8(%rbp),%rax
   28696:	48 8d 3d c3 73 00 00 	lea    0x73c3(%rip),%rdi        # 2fa60 <_IO_stdin_used+0x2a60>
   2869d:	ff d0                	callq  *%rax
   2869f:	48 89 05 5a ae 03 00 	mov    %rax,0x3ae5a(%rip)        # 63500 <glad_glVertexAttrib2f>
   286a6:	48 8b 45 f8          	mov    -0x8(%rbp),%rax
   286aa:	48 8d 3d ef 73 00 00 	lea    0x73ef(%rip),%rdi        # 2faa0 <_IO_stdin_used+0x2aa0>
   286b1:	ff d0                	callq  *%rax
   286b3:	48 89 05 86 ae 03 00 	mov    %rax,0x3ae86(%rip)        # 63540 <glad_glVertexAttrib2fv>
   286ba:	48 8b 45 f8          	mov    -0x8(%rbp),%rax
   286be:	48 8d 3d 1b 74 00 00 	lea    0x741b(%rip),%rdi        # 2fae0 <_IO_stdin_used+0x2ae0>
   286c5:	ff d0                	callq  *%rax
   286c7:	48 89 05 b2 ae 03 00 	mov    %rax,0x3aeb2(%rip)        # 63580 <glad_glVertexAttrib2s>
   286ce:	48 8b 45 f8          	mov    -0x8(%rbp),%rax
   286d2:	48 8d 3d 47 74 00 00 	lea    0x7447(%rip),%rdi        # 2fb20 <_IO_stdin_used+0x2b20>
   286d9:	ff d0                	callq  *%rax
   286db:	48 89 05 de ae 03 00 	mov    %rax,0x3aede(%rip)        # 635c0 <glad_glVertexAttrib2sv>
   286e2:	48 8b 45 f8          	mov    -0x8(%rbp),%rax
   286e6:	48 8d 3d 73 74 00 00 	lea    0x7473(%rip),%rdi        # 2fb60 <_IO_stdin_used+0x2b60>
   286ed:	ff d0                	callq  *%rax
   286ef:	48 89 05 0a af 03 00 	mov    %rax,0x3af0a(%rip)        # 63600 <glad_glVertexAttrib3d>
   286f6:	48 8b 45 f8          	mov    -0x8(%rbp),%rax
   286fa:	48 8d 3d 9f 74 00 00 	lea    0x749f(%rip),%rdi        # 2fba0 <_IO_stdin_used+0x2ba0>
   28701:	ff d0                	callq  *%rax
   28703:	48 89 05 36 af 03 00 	mov    %rax,0x3af36(%rip)        # 63640 <glad_glVertexAttrib3dv>
   2870a:	48 8b 45 f8          	mov    -0x8(%rbp),%rax
   2870e:	48 8d 3d cb 74 00 00 	lea    0x74cb(%rip),%rdi        # 2fbe0 <_IO_stdin_used+0x2be0>
   28715:	ff d0                	callq  *%rax
   28717:	48 89 05 62 af 03 00 	mov    %rax,0x3af62(%rip)        # 63680 <glad_glVertexAttrib3f>
   2871e:	48 8b 45 f8          	mov    -0x8(%rbp),%rax
   28722:	48 8d 3d f7 74 00 00 	lea    0x74f7(%rip),%rdi        # 2fc20 <_IO_stdin_used+0x2c20>
   28729:	ff d0                	callq  *%rax
   2872b:	48 89 05 8e af 03 00 	mov    %rax,0x3af8e(%rip)        # 636c0 <glad_glVertexAttrib3fv>
   28732:	48 8b 45 f8          	mov    -0x8(%rbp),%rax
   28736:	48 8d 3d 23 75 00 00 	lea    0x7523(%rip),%rdi        # 2fc60 <_IO_stdin_used+0x2c60>
   2873d:	ff d0                	callq  *%rax
   2873f:	48 89 05 ba af 03 00 	mov    %rax,0x3afba(%rip)        # 63700 <glad_glVertexAttrib3s>
   28746:	48 8b 45 f8          	mov    -0x8(%rbp),%rax
   2874a:	48 8d 3d 4f 75 00 00 	lea    0x754f(%rip),%rdi        # 2fca0 <_IO_stdin_used+0x2ca0>
   28751:	ff d0                	callq  *%rax
   28753:	48 89 05 e6 af 03 00 	mov    %rax,0x3afe6(%rip)        # 63740 <glad_glVertexAttrib3sv>
   2875a:	48 8b 45 f8          	mov    -0x8(%rbp),%rax
   2875e:	48 8d 3d 7b 75 00 00 	lea    0x757b(%rip),%rdi        # 2fce0 <_IO_stdin_used+0x2ce0>
   28765:	ff d0                	callq  *%rax
   28767:	48 89 05 12 b0 03 00 	mov    %rax,0x3b012(%rip)        # 63780 <glad_glVertexAttrib4Nbv>
   2876e:	48 8b 45 f8          	mov    -0x8(%rbp),%rax
   28772:	48 8d 3d a7 75 00 00 	lea    0x75a7(%rip),%rdi        # 2fd20 <_IO_stdin_used+0x2d20>
   28779:	ff d0                	callq  *%rax
   2877b:	48 89 05 3e b0 03 00 	mov    %rax,0x3b03e(%rip)        # 637c0 <glad_glVertexAttrib4Niv>
   28782:	48 8b 45 f8          	mov    -0x8(%rbp),%rax
   28786:	48 8d 3d d3 75 00 00 	lea    0x75d3(%rip),%rdi        # 2fd60 <_IO_stdin_used+0x2d60>
   2878d:	ff d0                	callq  *%rax
   2878f:	48 89 05 6a b0 03 00 	mov    %rax,0x3b06a(%rip)        # 63800 <glad_glVertexAttrib4Nsv>
   28796:	48 8b 45 f8          	mov    -0x8(%rbp),%rax
   2879a:	48 8d 3d ff 75 00 00 	lea    0x75ff(%rip),%rdi        # 2fda0 <_IO_stdin_used+0x2da0>
   287a1:	ff d0                	callq  *%rax
   287a3:	48 89 05 96 b0 03 00 	mov    %rax,0x3b096(%rip)        # 63840 <glad_glVertexAttrib4Nub>
   287aa:	48 8b 45 f8          	mov    -0x8(%rbp),%rax
   287ae:	48 8d 3d 2b 76 00 00 	lea    0x762b(%rip),%rdi        # 2fde0 <_IO_stdin_used+0x2de0>
   287b5:	ff d0                	callq  *%rax
   287b7:	48 89 05 c2 b0 03 00 	mov    %rax,0x3b0c2(%rip)        # 63880 <glad_glVertexAttrib4Nubv>
   287be:	48 8b 45 f8          	mov    -0x8(%rbp),%rax
   287c2:	48 8d 3d 57 76 00 00 	lea    0x7657(%rip),%rdi        # 2fe20 <_IO_stdin_used+0x2e20>
   287c9:	ff d0                	callq  *%rax
   287cb:	48 89 05 ee b0 03 00 	mov    %rax,0x3b0ee(%rip)        # 638c0 <glad_glVertexAttrib4Nuiv>
   287d2:	48 8b 45 f8          	mov    -0x8(%rbp),%rax
   287d6:	48 8d 3d 83 76 00 00 	lea    0x7683(%rip),%rdi        # 2fe60 <_IO_stdin_used+0x2e60>
   287dd:	ff d0                	callq  *%rax
   287df:	48 89 05 1a b1 03 00 	mov    %rax,0x3b11a(%rip)        # 63900 <glad_glVertexAttrib4Nusv>
   287e6:	48 8b 45 f8          	mov    -0x8(%rbp),%rax
   287ea:	48 8d 3d af 76 00 00 	lea    0x76af(%rip),%rdi        # 2fea0 <_IO_stdin_used+0x2ea0>
   287f1:	ff d0                	callq  *%rax
   287f3:	48 89 05 46 b1 03 00 	mov    %rax,0x3b146(%rip)        # 63940 <glad_glVertexAttrib4bv>
   287fa:	48 8b 45 f8          	mov    -0x8(%rbp),%rax
   287fe:	48 8d 3d db 76 00 00 	lea    0x76db(%rip),%rdi        # 2fee0 <_IO_stdin_used+0x2ee0>
   28805:	ff d0                	callq  *%rax
   28807:	48 89 05 72 b1 03 00 	mov    %rax,0x3b172(%rip)        # 63980 <glad_glVertexAttrib4d>
   2880e:	48 8b 45 f8          	mov    -0x8(%rbp),%rax
   28812:	48 8d 3d 07 77 00 00 	lea    0x7707(%rip),%rdi        # 2ff20 <_IO_stdin_used+0x2f20>
   28819:	ff d0                	callq  *%rax
   2881b:	48 89 05 9e b1 03 00 	mov    %rax,0x3b19e(%rip)        # 639c0 <glad_glVertexAttrib4dv>
   28822:	48 8b 45 f8          	mov    -0x8(%rbp),%rax
   28826:	48 8d 3d 33 77 00 00 	lea    0x7733(%rip),%rdi        # 2ff60 <_IO_stdin_used+0x2f60>
   2882d:	ff d0                	callq  *%rax
   2882f:	48 89 05 ca b1 03 00 	mov    %rax,0x3b1ca(%rip)        # 63a00 <glad_glVertexAttrib4f>
   28836:	48 8b 45 f8          	mov    -0x8(%rbp),%rax
   2883a:	48 8d 3d 5f 77 00 00 	lea    0x775f(%rip),%rdi        # 2ffa0 <_IO_stdin_used+0x2fa0>
   28841:	ff d0                	callq  *%rax
   28843:	48 89 05 f6 b1 03 00 	mov    %rax,0x3b1f6(%rip)        # 63a40 <glad_glVertexAttrib4fv>
   2884a:	48 8b 45 f8          	mov    -0x8(%rbp),%rax
   2884e:	48 8d 3d 8b 77 00 00 	lea    0x778b(%rip),%rdi        # 2ffe0 <_IO_stdin_used+0x2fe0>
   28855:	ff d0                	callq  *%rax
   28857:	48 89 05 22 b2 03 00 	mov    %rax,0x3b222(%rip)        # 63a80 <glad_glVertexAttrib4iv>
   2885e:	48 8b 45 f8          	mov    -0x8(%rbp),%rax
   28862:	48 8d 3d b7 77 00 00 	lea    0x77b7(%rip),%rdi        # 30020 <_IO_stdin_used+0x3020>
   28869:	ff d0                	callq  *%rax
   2886b:	48 89 05 4e b2 03 00 	mov    %rax,0x3b24e(%rip)        # 63ac0 <glad_glVertexAttrib4s>
   28872:	48 8b 45 f8          	mov    -0x8(%rbp),%rax
   28876:	48 8d 3d e3 77 00 00 	lea    0x77e3(%rip),%rdi        # 30060 <_IO_stdin_used+0x3060>
   2887d:	ff d0                	callq  *%rax
   2887f:	48 89 05 7a b2 03 00 	mov    %rax,0x3b27a(%rip)        # 63b00 <glad_glVertexAttrib4sv>
   28886:	48 8b 45 f8          	mov    -0x8(%rbp),%rax
   2888a:	48 8d 3d 0f 78 00 00 	lea    0x780f(%rip),%rdi        # 300a0 <_IO_stdin_used+0x30a0>
   28891:	ff d0                	callq  *%rax
   28893:	48 89 05 a6 b2 03 00 	mov    %rax,0x3b2a6(%rip)        # 63b40 <glad_glVertexAttrib4ubv>
   2889a:	48 8b 45 f8          	mov    -0x8(%rbp),%rax
   2889e:	48 8d 3d 3b 78 00 00 	lea    0x783b(%rip),%rdi        # 300e0 <_IO_stdin_used+0x30e0>
   288a5:	ff d0                	callq  *%rax
   288a7:	48 89 05 d2 b2 03 00 	mov    %rax,0x3b2d2(%rip)        # 63b80 <glad_glVertexAttrib4uiv>
   288ae:	48 8b 45 f8          	mov    -0x8(%rbp),%rax
   288b2:	48 8d 3d 67 78 00 00 	lea    0x7867(%rip),%rdi        # 30120 <_IO_stdin_used+0x3120>
   288b9:	ff d0                	callq  *%rax
   288bb:	48 89 05 fe b2 03 00 	mov    %rax,0x3b2fe(%rip)        # 63bc0 <glad_glVertexAttrib4usv>
   288c2:	48 8b 45 f8          	mov    -0x8(%rbp),%rax
   288c6:	48 8d 3d 93 78 00 00 	lea    0x7893(%rip),%rdi        # 30160 <_IO_stdin_used+0x3160>
   288cd:	ff d0                	callq  *%rax
   288cf:	48 89 05 ea bd 03 00 	mov    %rax,0x3bdea(%rip)        # 646c0 <glad_glVertexAttribPointer>
   288d6:	eb 01                	jmp    288d9 <_ZL19load_GL_VERSION_2_0PFPvPKcE+0x761>
   288d8:	90                   	nop
   288d9:	c9                   	leaveq 
   288da:	c3                   	retq   

00000000000288db <_ZL19load_GL_VERSION_2_1PFPvPKcE>:
   288db:	55                   	push   %rbp
   288dc:	48 89 e5             	mov    %rsp,%rbp
   288df:	48 83 ec 10          	sub    $0x10,%rsp
   288e3:	48 89 7d f8          	mov    %rdi,-0x8(%rbp)
   288e7:	8b 05 93 10 03 00    	mov    0x31093(%rip),%eax        # 59980 <GLAD_GL_VERSION_2_1>
   288ed:	85 c0                	test   %eax,%eax
   288ef:	74 7a                	je     2896b <_ZL19load_GL_VERSION_2_1PFPvPKcE+0x90>
   288f1:	48 8b 45 f8          	mov    -0x8(%rbp),%rax
   288f5:	48 8d 3d a4 78 00 00 	lea    0x78a4(%rip),%rdi        # 301a0 <_IO_stdin_used+0x31a0>
   288fc:	ff d0                	callq  *%rax
   288fe:	48 89 05 7b a2 03 00 	mov    %rax,0x3a27b(%rip)        # 62b80 <glad_glUniformMatrix2x3fv>
   28905:	48 8b 45 f8          	mov    -0x8(%rbp),%rax
   28909:	48 8d 3d d0 78 00 00 	lea    0x78d0(%rip),%rdi        # 301e0 <_IO_stdin_used+0x31e0>
   28910:	ff d0                	callq  *%rax
   28912:	48 89 05 e7 a3 03 00 	mov    %rax,0x3a3e7(%rip)        # 62d00 <glad_glUniformMatrix3x2fv>
   28919:	48 8b 45 f8          	mov    -0x8(%rbp),%rax
   2891d:	48 8d 3d fc 78 00 00 	lea    0x78fc(%rip),%rdi        # 30220 <_IO_stdin_used+0x3220>
   28924:	ff d0                	callq  *%rax
   28926:	48 89 05 d3 a2 03 00 	mov    %rax,0x3a2d3(%rip)        # 62c00 <glad_glUniformMatrix2x4fv>
   2892d:	48 8b 45 f8          	mov    -0x8(%rbp),%rax
   28931:	48 8d 3d 28 79 00 00 	lea    0x7928(%rip),%rdi        # 30260 <_IO_stdin_used+0x3260>
   28938:	ff d0                	callq  *%rax
   2893a:	48 89 05 3f a5 03 00 	mov    %rax,0x3a53f(%rip)        # 62e80 <glad_glUniformMatrix4x2fv>
   28941:	48 8b 45 f8          	mov    -0x8(%rbp),%rax
   28945:	48 8d 3d 54 79 00 00 	lea    0x7954(%rip),%rdi        # 302a0 <_IO_stdin_used+0x32a0>
   2894c:	ff d0                	callq  *%rax
   2894e:	48 89 05 2b a4 03 00 	mov    %rax,0x3a42b(%rip)        # 62d80 <glad_glUniformMatrix3x4fv>
   28955:	48 8b 45 f8          	mov    -0x8(%rbp),%rax
   28959:	48 8d 3d 80 79 00 00 	lea    0x7980(%rip),%rdi        # 302e0 <_IO_stdin_used+0x32e0>
   28960:	ff d0                	callq  *%rax
   28962:	48 89 05 97 a5 03 00 	mov    %rax,0x3a597(%rip)        # 62f00 <glad_glUniformMatrix4x3fv>
   28969:	eb 01                	jmp    2896c <_ZL19load_GL_VERSION_2_1PFPvPKcE+0x91>
   2896b:	90                   	nop
   2896c:	c9                   	leaveq 
   2896d:	c3                   	retq   

000000000002896e <_ZL19load_GL_VERSION_3_0PFPvPKcE>:
   2896e:	55                   	push   %rbp
   2896f:	48 89 e5             	mov    %rsp,%rbp
   28972:	48 83 ec 10          	sub    $0x10,%rsp
   28976:	48 89 7d f8          	mov    %rdi,-0x8(%rbp)
   2897a:	8b 05 40 10 03 00    	mov    0x31040(%rip),%eax        # 599c0 <GLAD_GL_VERSION_3_0>
   28980:	85 c0                	test   %eax,%eax
   28982:	0f 84 92 06 00 00    	je     2901a <_ZL19load_GL_VERSION_3_0PFPvPKcE+0x6ac>
   28988:	48 8b 45 f8          	mov    -0x8(%rbp),%rax
   2898c:	48 8d 3d 8d 79 00 00 	lea    0x798d(%rip),%rdi        # 30320 <_IO_stdin_used+0x3320>
   28993:	ff d0                	callq  *%rax
   28995:	48 89 05 a4 23 03 00 	mov    %rax,0x323a4(%rip)        # 5ad40 <glad_glColorMaski>
   2899c:	48 8b 45 f8          	mov    -0x8(%rbp),%rax
   289a0:	48 8d 3d b9 79 00 00 	lea    0x79b9(%rip),%rdi        # 30360 <_IO_stdin_used+0x3360>
   289a7:	ff d0                	callq  *%rax
   289a9:	48 89 05 10 44 03 00 	mov    %rax,0x34410(%rip)        # 5cdc0 <glad_glGetBooleani_v>
   289b0:	48 8b 45 f8          	mov    -0x8(%rbp),%rax
   289b4:	48 8d 3d e5 79 00 00 	lea    0x79e5(%rip),%rdi        # 303a0 <_IO_stdin_used+0x33a0>
   289bb:	ff d0                	callq  *%rax
   289bd:	48 89 05 7c 49 03 00 	mov    %rax,0x3497c(%rip)        # 5d340 <glad_glGetIntegeri_v>
   289c4:	48 8b 45 f8          	mov    -0x8(%rbp),%rax
   289c8:	48 8d 3d 11 7a 00 00 	lea    0x7a11(%rip),%rdi        # 303e0 <_IO_stdin_used+0x33e0>
   289cf:	ff d0                	callq  *%rax
   289d1:	48 89 05 a8 39 03 00 	mov    %rax,0x339a8(%rip)        # 5c380 <glad_glEnablei>
   289d8:	48 8b 45 f8          	mov    -0x8(%rbp),%rax
   289dc:	48 8d 3d 3d 7a 00 00 	lea    0x7a3d(%rip),%rdi        # 30420 <_IO_stdin_used+0x3420>
   289e3:	ff d0                	callq  *%rax
   289e5:	48 89 05 54 33 03 00 	mov    %rax,0x33354(%rip)        # 5bd40 <glad_glDisablei>
   289ec:	48 8b 45 f8          	mov    -0x8(%rbp),%rax
   289f0:	48 8d 3d 69 7a 00 00 	lea    0x7a69(%rip),%rdi        # 30460 <_IO_stdin_used+0x3460>
   289f7:	ff d0                	callq  *%rax
   289f9:	48 89 05 80 66 03 00 	mov    %rax,0x36680(%rip)        # 5f080 <glad_glIsEnabledi>
   28a00:	48 8b 45 f8          	mov    -0x8(%rbp),%rax
   28a04:	48 8d 3d 95 7a 00 00 	lea    0x7a95(%rip),%rdi        # 304a0 <_IO_stdin_used+0x34a0>
   28a0b:	ff d0                	callq  *%rax
   28a0d:	48 89 05 ac 13 03 00 	mov    %rax,0x313ac(%rip)        # 59dc0 <glad_glBeginTransformFeedback>
   28a14:	48 8b 45 f8          	mov    -0x8(%rbp),%rax
   28a18:	48 8d 3d c1 7a 00 00 	lea    0x7ac1(%rip),%rdi        # 304e0 <_IO_stdin_used+0x34e0>
   28a1f:	ff d0                	callq  *%rax
   28a21:	48 89 05 58 3a 03 00 	mov    %rax,0x33a58(%rip)        # 5c480 <glad_glEndTransformFeedback>
   28a28:	48 8b 45 f8          	mov    -0x8(%rbp),%rax
   28a2c:	48 8d 3d ed 7a 00 00 	lea    0x7aed(%rip),%rdi        # 30520 <_IO_stdin_used+0x3520>
   28a33:	ff d0                	callq  *%rax
   28a35:	48 89 05 84 14 03 00 	mov    %rax,0x31484(%rip)        # 59ec0 <glad_glBindBufferRange>
   28a3c:	48 8b 45 f8          	mov    -0x8(%rbp),%rax
   28a40:	48 8d 3d 19 7b 00 00 	lea    0x7b19(%rip),%rdi        # 30560 <_IO_stdin_used+0x3560>
   28a47:	ff d0                	callq  *%rax
   28a49:	48 89 05 30 14 03 00 	mov    %rax,0x31430(%rip)        # 59e80 <glad_glBindBufferBase>
   28a50:	48 8b 45 f8          	mov    -0x8(%rbp),%rax
   28a54:	48 8d 3d 45 7b 00 00 	lea    0x7b45(%rip),%rdi        # 305a0 <_IO_stdin_used+0x35a0>
   28a5b:	ff d0                	callq  *%rax
   28a5d:	48 89 05 dc 97 03 00 	mov    %rax,0x397dc(%rip)        # 62240 <glad_glTransformFeedbackVaryings>
   28a64:	48 8b 45 f8          	mov    -0x8(%rbp),%rax
   28a68:	48 8d 3d 71 7b 00 00 	lea    0x7b71(%rip),%rdi        # 305e0 <_IO_stdin_used+0x35e0>
   28a6f:	ff d0                	callq  *%rax
   28a71:	48 89 05 48 59 03 00 	mov    %rax,0x35948(%rip)        # 5e3c0 <glad_glGetTransformFeedbackVarying>
   28a78:	48 8b 45 f8          	mov    -0x8(%rbp),%rax
   28a7c:	48 8d 3d 9d 7b 00 00 	lea    0x7b9d(%rip),%rdi        # 30620 <_IO_stdin_used+0x3620>
   28a83:	ff d0                	callq  *%rax
   28a85:	48 89 05 f4 1c 03 00 	mov    %rax,0x31cf4(%rip)        # 5a780 <glad_glClampColor>
   28a8c:	48 8b 45 f8          	mov    -0x8(%rbp),%rax
   28a90:	48 8d 3d c9 7b 00 00 	lea    0x7bc9(%rip),%rdi        # 30660 <_IO_stdin_used+0x3660>
   28a97:	ff d0                	callq  *%rax
   28a99:	48 89 05 60 12 03 00 	mov    %rax,0x31260(%rip)        # 59d00 <glad_glBeginConditionalRender>
   28aa0:	48 8b 45 f8          	mov    -0x8(%rbp),%rax
   28aa4:	48 8d 3d f5 7b 00 00 	lea    0x7bf5(%rip),%rdi        # 306a0 <_IO_stdin_used+0x36a0>
   28aab:	ff d0                	callq  *%rax
   28aad:	48 89 05 0c 39 03 00 	mov    %rax,0x3390c(%rip)        # 5c3c0 <glad_glEndConditionalRender>
   28ab4:	48 8b 45 f8          	mov    -0x8(%rbp),%rax
   28ab8:	48 8d 3d 21 7c 00 00 	lea    0x7c21(%rip),%rdi        # 306e0 <_IO_stdin_used+0x36e0>
   28abf:	ff d0                	callq  *%rax
   28ac1:	48 89 05 38 b7 03 00 	mov    %rax,0x3b738(%rip)        # 64200 <glad_glVertexAttribIPointer>
   28ac8:	48 8b 45 f8          	mov    -0x8(%rbp),%rax
   28acc:	48 8d 3d 4d 7c 00 00 	lea    0x7c4d(%rip),%rdi        # 30720 <_IO_stdin_used+0x3720>
   28ad3:	ff d0                	callq  *%rax
   28ad5:	48 89 05 a4 5c 03 00 	mov    %rax,0x35ca4(%rip)        # 5e780 <glad_glGetVertexAttribIiv>
   28adc:	48 8b 45 f8          	mov    -0x8(%rbp),%rax
   28ae0:	48 8d 3d 79 7c 00 00 	lea    0x7c79(%rip),%rdi        # 30760 <_IO_stdin_used+0x3760>
   28ae7:	ff d0                	callq  *%rax
   28ae9:	48 89 05 d0 5c 03 00 	mov    %rax,0x35cd0(%rip)        # 5e7c0 <glad_glGetVertexAttribIuiv>
   28af0:	48 8b 45 f8          	mov    -0x8(%rbp),%rax
   28af4:	48 8d 3d a5 7c 00 00 	lea    0x7ca5(%rip),%rdi        # 307a0 <_IO_stdin_used+0x37a0>
   28afb:	ff d0                	callq  *%rax
   28afd:	48 89 05 bc b1 03 00 	mov    %rax,0x3b1bc(%rip)        # 63cc0 <glad_glVertexAttribI1i>
   28b04:	48 8b 45 f8          	mov    -0x8(%rbp),%rax
   28b08:	48 8d 3d d1 7c 00 00 	lea    0x7cd1(%rip),%rdi        # 307e0 <_IO_stdin_used+0x37e0>
   28b0f:	ff d0                	callq  *%rax
   28b11:	48 89 05 a8 b2 03 00 	mov    %rax,0x3b2a8(%rip)        # 63dc0 <glad_glVertexAttribI2i>
   28b18:	48 8b 45 f8          	mov    -0x8(%rbp),%rax
   28b1c:	48 8d 3d fd 7c 00 00 	lea    0x7cfd(%rip),%rdi        # 30820 <_IO_stdin_used+0x3820>
   28b23:	ff d0                	callq  *%rax
   28b25:	48 89 05 94 b3 03 00 	mov    %rax,0x3b394(%rip)        # 63ec0 <glad_glVertexAttribI3i>
   28b2c:	48 8b 45 f8          	mov    -0x8(%rbp),%rax
   28b30:	48 8d 3d 29 7d 00 00 	lea    0x7d29(%rip),%rdi        # 30860 <_IO_stdin_used+0x3860>
   28b37:	ff d0                	callq  *%rax
   28b39:	48 89 05 c0 b4 03 00 	mov    %rax,0x3b4c0(%rip)        # 64000 <glad_glVertexAttribI4i>
   28b40:	48 8b 45 f8          	mov    -0x8(%rbp),%rax
   28b44:	48 8d 3d 55 7d 00 00 	lea    0x7d55(%rip),%rdi        # 308a0 <_IO_stdin_used+0x38a0>
   28b4b:	ff d0                	callq  *%rax
   28b4d:	48 89 05 ec b1 03 00 	mov    %rax,0x3b1ec(%rip)        # 63d40 <glad_glVertexAttribI1ui>
   28b54:	48 8b 45 f8          	mov    -0x8(%rbp),%rax
   28b58:	48 8d 3d 81 7d 00 00 	lea    0x7d81(%rip),%rdi        # 308e0 <_IO_stdin_used+0x38e0>
   28b5f:	ff d0                	callq  *%rax
   28b61:	48 89 05 d8 b2 03 00 	mov    %rax,0x3b2d8(%rip)        # 63e40 <glad_glVertexAttribI2ui>
   28b68:	48 8b 45 f8          	mov    -0x8(%rbp),%rax
   28b6c:	48 8d 3d ad 7d 00 00 	lea    0x7dad(%rip),%rdi        # 30920 <_IO_stdin_used+0x3920>
   28b73:	ff d0                	callq  *%rax
   28b75:	48 89 05 c4 b3 03 00 	mov    %rax,0x3b3c4(%rip)        # 63f40 <glad_glVertexAttribI3ui>
   28b7c:	48 8b 45 f8          	mov    -0x8(%rbp),%rax
   28b80:	48 8d 3d d9 7d 00 00 	lea    0x7dd9(%rip),%rdi        # 30960 <_IO_stdin_used+0x3960>
   28b87:	ff d0                	callq  *%rax
   28b89:	48 89 05 70 b5 03 00 	mov    %rax,0x3b570(%rip)        # 64100 <glad_glVertexAttribI4ui>
   28b90:	48 8b 45 f8          	mov    -0x8(%rbp),%rax
   28b94:	48 8d 3d 05 7e 00 00 	lea    0x7e05(%rip),%rdi        # 309a0 <_IO_stdin_used+0x39a0>
   28b9b:	ff d0                	callq  *%rax
   28b9d:	48 89 05 5c b1 03 00 	mov    %rax,0x3b15c(%rip)        # 63d00 <glad_glVertexAttribI1iv>
   28ba4:	48 8b 45 f8          	mov    -0x8(%rbp),%rax
   28ba8:	48 8d 3d 31 7e 00 00 	lea    0x7e31(%rip),%rdi        # 309e0 <_IO_stdin_used+0x39e0>
   28baf:	ff d0                	callq  *%rax
   28bb1:	48 89 05 48 b2 03 00 	mov    %rax,0x3b248(%rip)        # 63e00 <glad_glVertexAttribI2iv>
   28bb8:	48 8b 45 f8          	mov    -0x8(%rbp),%rax
   28bbc:	48 8d 3d 5d 7e 00 00 	lea    0x7e5d(%rip),%rdi        # 30a20 <_IO_stdin_used+0x3a20>
   28bc3:	ff d0                	callq  *%rax
   28bc5:	48 89 05 34 b3 03 00 	mov    %rax,0x3b334(%rip)        # 63f00 <glad_glVertexAttribI3iv>
   28bcc:	48 8b 45 f8          	mov    -0x8(%rbp),%rax
   28bd0:	48 8d 3d 89 7e 00 00 	lea    0x7e89(%rip),%rdi        # 30a60 <_IO_stdin_used+0x3a60>
   28bd7:	ff d0                	callq  *%rax
   28bd9:	48 89 05 60 b4 03 00 	mov    %rax,0x3b460(%rip)        # 64040 <glad_glVertexAttribI4iv>
   28be0:	48 8b 45 f8          	mov    -0x8(%rbp),%rax
   28be4:	48 8d 3d b5 7e 00 00 	lea    0x7eb5(%rip),%rdi        # 30aa0 <_IO_stdin_used+0x3aa0>
   28beb:	ff d0                	callq  *%rax
   28bed:	48 89 05 8c b1 03 00 	mov    %rax,0x3b18c(%rip)        # 63d80 <glad_glVertexAttribI1uiv>
   28bf4:	48 8b 45 f8          	mov    -0x8(%rbp),%rax
   28bf8:	48 8d 3d e1 7e 00 00 	lea    0x7ee1(%rip),%rdi        # 30ae0 <_IO_stdin_used+0x3ae0>
   28bff:	ff d0                	callq  *%rax
   28c01:	48 89 05 78 b2 03 00 	mov    %rax,0x3b278(%rip)        # 63e80 <glad_glVertexAttribI2uiv>
   28c08:	48 8b 45 f8          	mov    -0x8(%rbp),%rax
   28c0c:	48 8d 3d 0d 7f 00 00 	lea    0x7f0d(%rip),%rdi        # 30b20 <_IO_stdin_used+0x3b20>
   28c13:	ff d0                	callq  *%rax
   28c15:	48 89 05 64 b3 03 00 	mov    %rax,0x3b364(%rip)        # 63f80 <glad_glVertexAttribI3uiv>
   28c1c:	48 8b 45 f8          	mov    -0x8(%rbp),%rax
   28c20:	48 8d 3d 39 7f 00 00 	lea    0x7f39(%rip),%rdi        # 30b60 <_IO_stdin_used+0x3b60>
   28c27:	ff d0                	callq  *%rax
   28c29:	48 89 05 10 b5 03 00 	mov    %rax,0x3b510(%rip)        # 64140 <glad_glVertexAttribI4uiv>
   28c30:	48 8b 45 f8          	mov    -0x8(%rbp),%rax
   28c34:	48 8d 3d 65 7f 00 00 	lea    0x7f65(%rip),%rdi        # 30ba0 <_IO_stdin_used+0x3ba0>
   28c3b:	ff d0                	callq  *%rax
   28c3d:	48 89 05 7c b3 03 00 	mov    %rax,0x3b37c(%rip)        # 63fc0 <glad_glVertexAttribI4bv>
   28c44:	48 8b 45 f8          	mov    -0x8(%rbp),%rax
   28c48:	48 8d 3d 91 7f 00 00 	lea    0x7f91(%rip),%rdi        # 30be0 <_IO_stdin_used+0x3be0>
   28c4f:	ff d0                	callq  *%rax
   28c51:	48 89 05 28 b4 03 00 	mov    %rax,0x3b428(%rip)        # 64080 <glad_glVertexAttribI4sv>
   28c58:	48 8b 45 f8          	mov    -0x8(%rbp),%rax
   28c5c:	48 8d 3d bd 7f 00 00 	lea    0x7fbd(%rip),%rdi        # 30c20 <_IO_stdin_used+0x3c20>
   28c63:	ff d0                	callq  *%rax
   28c65:	48 89 05 54 b4 03 00 	mov    %rax,0x3b454(%rip)        # 640c0 <glad_glVertexAttribI4ubv>
   28c6c:	48 8b 45 f8          	mov    -0x8(%rbp),%rax
   28c70:	48 8d 3d e9 7f 00 00 	lea    0x7fe9(%rip),%rdi        # 30c60 <_IO_stdin_used+0x3c60>
   28c77:	ff d0                	callq  *%rax
   28c79:	48 89 05 00 b5 03 00 	mov    %rax,0x3b500(%rip)        # 64180 <glad_glVertexAttribI4usv>
   28c80:	48 8b 45 f8          	mov    -0x8(%rbp),%rax
   28c84:	48 8d 3d 15 80 00 00 	lea    0x8015(%rip),%rdi        # 30ca0 <_IO_stdin_used+0x3ca0>
   28c8b:	ff d0                	callq  *%rax
   28c8d:	48 89 05 ec 59 03 00 	mov    %rax,0x359ec(%rip)        # 5e680 <glad_glGetUniformuiv>
   28c94:	48 8b 45 f8          	mov    -0x8(%rbp),%rax
   28c98:	48 8d 3d 41 80 00 00 	lea    0x8041(%rip),%rdi        # 30ce0 <_IO_stdin_used+0x3ce0>
   28c9f:	ff d0                	callq  *%rax
   28ca1:	48 89 05 d8 12 03 00 	mov    %rax,0x312d8(%rip)        # 59f80 <glad_glBindFragDataLocation>
   28ca8:	48 8b 45 f8          	mov    -0x8(%rbp),%rax
   28cac:	48 8d 3d 6d 80 00 00 	lea    0x806d(%rip),%rdi        # 30d20 <_IO_stdin_used+0x3d20>
   28cb3:	ff d0                	callq  *%rax
   28cb5:	48 89 05 04 45 03 00 	mov    %rax,0x34504(%rip)        # 5d1c0 <glad_glGetFragDataLocation>
   28cbc:	48 8b 45 f8          	mov    -0x8(%rbp),%rax
   28cc0:	48 8d 3d 99 80 00 00 	lea    0x8099(%rip),%rdi        # 30d60 <_IO_stdin_used+0x3d60>
   28cc7:	ff d0                	callq  *%rax
   28cc9:	48 89 05 30 97 03 00 	mov    %rax,0x39730(%rip)        # 62400 <glad_glUniform1ui>
   28cd0:	48 8b 45 f8          	mov    -0x8(%rbp),%rax
   28cd4:	48 8d 3d c5 80 00 00 	lea    0x80c5(%rip),%rdi        # 30da0 <_IO_stdin_used+0x3da0>
   28cdb:	ff d0                	callq  *%rax
   28cdd:	48 89 05 1c 99 03 00 	mov    %rax,0x3991c(%rip)        # 62600 <glad_glUniform2ui>
   28ce4:	48 8b 45 f8          	mov    -0x8(%rbp),%rax
   28ce8:	48 8d 3d f1 80 00 00 	lea    0x80f1(%rip),%rdi        # 30de0 <_IO_stdin_used+0x3de0>
   28cef:	ff d0                	callq  *%rax
   28cf1:	48 89 05 08 9b 03 00 	mov    %rax,0x39b08(%rip)        # 62800 <glad_glUniform3ui>
   28cf8:	48 8b 45 f8          	mov    -0x8(%rbp),%rax
   28cfc:	48 8d 3d 1d 81 00 00 	lea    0x811d(%rip),%rdi        # 30e20 <_IO_stdin_used+0x3e20>
   28d03:	ff d0                	callq  *%rax
   28d05:	48 89 05 f4 9c 03 00 	mov    %rax,0x39cf4(%rip)        # 62a00 <glad_glUniform4ui>
   28d0c:	48 8b 45 f8          	mov    -0x8(%rbp),%rax
   28d10:	48 8d 3d 49 81 00 00 	lea    0x8149(%rip),%rdi        # 30e60 <_IO_stdin_used+0x3e60>
   28d17:	ff d0                	callq  *%rax
   28d19:	48 89 05 20 97 03 00 	mov    %rax,0x39720(%rip)        # 62440 <glad_glUniform1uiv>
   28d20:	48 8b 45 f8          	mov    -0x8(%rbp),%rax
   28d24:	48 8d 3d 75 81 00 00 	lea    0x8175(%rip),%rdi        # 30ea0 <_IO_stdin_used+0x3ea0>
   28d2b:	ff d0                	callq  *%rax
   28d2d:	48 89 05 0c 99 03 00 	mov    %rax,0x3990c(%rip)        # 62640 <glad_glUniform2uiv>
   28d34:	48 8b 45 f8          	mov    -0x8(%rbp),%rax
   28d38:	48 8d 3d a1 81 00 00 	lea    0x81a1(%rip),%rdi        # 30ee0 <_IO_stdin_used+0x3ee0>
   28d3f:	ff d0                	callq  *%rax
   28d41:	48 89 05 f8 9a 03 00 	mov    %rax,0x39af8(%rip)        # 62840 <glad_glUniform3uiv>
   28d48:	48 8b 45 f8          	mov    -0x8(%rbp),%rax
   28d4c:	48 8d 3d cd 81 00 00 	lea    0x81cd(%rip),%rdi        # 30f20 <_IO_stdin_used+0x3f20>
   28d53:	ff d0                	callq  *%rax
   28d55:	48 89 05 e4 9c 03 00 	mov    %rax,0x39ce4(%rip)        # 62a40 <glad_glUniform4uiv>
   28d5c:	48 8b 45 f8          	mov    -0x8(%rbp),%rax
   28d60:	48 8d 3d f9 81 00 00 	lea    0x81f9(%rip),%rdi        # 30f60 <_IO_stdin_used+0x3f60>
   28d67:	ff d0                	callq  *%rax
   28d69:	48 89 05 50 8c 03 00 	mov    %rax,0x38c50(%rip)        # 619c0 <glad_glTexParameterIiv>
   28d70:	48 8b 45 f8          	mov    -0x8(%rbp),%rax
   28d74:	48 8d 3d 25 82 00 00 	lea    0x8225(%rip),%rdi        # 30fa0 <_IO_stdin_used+0x3fa0>
   28d7b:	ff d0                	callq  *%rax
   28d7d:	48 89 05 7c 8c 03 00 	mov    %rax,0x38c7c(%rip)        # 61a00 <glad_glTexParameterIuiv>
   28d84:	48 8b 45 f8          	mov    -0x8(%rbp),%rax
   28d88:	48 8d 3d 51 82 00 00 	lea    0x8251(%rip),%rdi        # 30fe0 <_IO_stdin_used+0x3fe0>
   28d8f:	ff d0                	callq  *%rax
   28d91:	48 89 05 28 53 03 00 	mov    %rax,0x35328(%rip)        # 5e0c0 <glad_glGetTexParameterIiv>
   28d98:	48 8b 45 f8          	mov    -0x8(%rbp),%rax
   28d9c:	48 8d 3d 7d 82 00 00 	lea    0x827d(%rip),%rdi        # 31020 <_IO_stdin_used+0x4020>
   28da3:	ff d0                	callq  *%rax
   28da5:	48 89 05 54 53 03 00 	mov    %rax,0x35354(%rip)        # 5e100 <glad_glGetTexParameterIuiv>
   28dac:	48 8b 45 f8          	mov    -0x8(%rbp),%rax
   28db0:	48 8d 3d a9 82 00 00 	lea    0x82a9(%rip),%rdi        # 31060 <_IO_stdin_used+0x4060>
   28db7:	ff d0                	callq  *%rax
   28db9:	48 89 05 40 1b 03 00 	mov    %rax,0x31b40(%rip)        # 5a900 <glad_glClearBufferiv>
   28dc0:	48 8b 45 f8          	mov    -0x8(%rbp),%rax
   28dc4:	48 8d 3d d5 82 00 00 	lea    0x82d5(%rip),%rdi        # 310a0 <_IO_stdin_used+0x40a0>
   28dcb:	ff d0                	callq  *%rax
   28dcd:	48 89 05 6c 1b 03 00 	mov    %rax,0x31b6c(%rip)        # 5a940 <glad_glClearBufferuiv>
   28dd4:	48 8b 45 f8          	mov    -0x8(%rbp),%rax
   28dd8:	48 8d 3d 01 83 00 00 	lea    0x8301(%rip),%rdi        # 310e0 <_IO_stdin_used+0x40e0>
   28ddf:	ff d0                	callq  *%rax
   28de1:	48 89 05 d8 1a 03 00 	mov    %rax,0x31ad8(%rip)        # 5a8c0 <glad_glClearBufferfv>
   28de8:	48 8b 45 f8          	mov    -0x8(%rbp),%rax
   28dec:	48 8d 3d 2d 83 00 00 	lea    0x832d(%rip),%rdi        # 31120 <_IO_stdin_used+0x4120>
   28df3:	ff d0                	callq  *%rax
   28df5:	48 89 05 84 1a 03 00 	mov    %rax,0x31a84(%rip)        # 5a880 <glad_glClearBufferfi>
   28dfc:	48 8b 45 f8          	mov    -0x8(%rbp),%rax
   28e00:	48 8d 3d 59 83 00 00 	lea    0x8359(%rip),%rdi        # 31160 <_IO_stdin_used+0x4160>
   28e07:	ff d0                	callq  *%rax
   28e09:	48 89 05 f0 50 03 00 	mov    %rax,0x350f0(%rip)        # 5df00 <glad_glGetStringi>
   28e10:	48 8b 45 f8          	mov    -0x8(%rbp),%rax
   28e14:	48 8d 3d 85 83 00 00 	lea    0x8385(%rip),%rdi        # 311a0 <_IO_stdin_used+0x41a0>
   28e1b:	ff d0                	callq  *%rax
   28e1d:	48 89 05 9c 63 03 00 	mov    %rax,0x3639c(%rip)        # 5f1c0 <glad_glIsRenderbuffer>
   28e24:	48 8b 45 f8          	mov    -0x8(%rbp),%rax
   28e28:	48 8d 3d b1 83 00 00 	lea    0x83b1(%rip),%rdi        # 311e0 <_IO_stdin_used+0x41e0>
   28e2f:	ff d0                	callq  *%rax
   28e31:	48 89 05 c8 12 03 00 	mov    %rax,0x312c8(%rip)        # 5a100 <glad_glBindRenderbuffer>
   28e38:	48 8b 45 f8          	mov    -0x8(%rbp),%rax
   28e3c:	48 8d 3d dd 83 00 00 	lea    0x83dd(%rip),%rdi        # 31220 <_IO_stdin_used+0x4220>
   28e43:	ff d0                	callq  *%rax
   28e45:	48 89 05 b4 2a 03 00 	mov    %rax,0x32ab4(%rip)        # 5b900 <glad_glDeleteRenderbuffers>
   28e4c:	48 8b 45 f8          	mov    -0x8(%rbp),%rax
   28e50:	48 8d 3d 09 84 00 00 	lea    0x8409(%rip),%rdi        # 31260 <_IO_stdin_used+0x4260>
   28e57:	ff d0                	callq  *%rax
   28e59:	48 89 05 a0 3a 03 00 	mov    %rax,0x33aa0(%rip)        # 5c900 <glad_glGenRenderbuffers>
   28e60:	48 8b 45 f8          	mov    -0x8(%rbp),%rax
   28e64:	48 8d 3d 35 84 00 00 	lea    0x8435(%rip),%rdi        # 312a0 <_IO_stdin_used+0x42a0>
   28e6b:	ff d0                	callq  *%rax
   28e6d:	48 89 05 0c 81 03 00 	mov    %rax,0x3810c(%rip)        # 60f80 <glad_glRenderbufferStorage>
   28e74:	48 8b 45 f8          	mov    -0x8(%rbp),%rax
   28e78:	48 8d 3d 61 84 00 00 	lea    0x8461(%rip),%rdi        # 312e0 <_IO_stdin_used+0x42e0>
   28e7f:	ff d0                	callq  *%rax
   28e81:	48 89 05 f8 4d 03 00 	mov    %rax,0x34df8(%rip)        # 5dc80 <glad_glGetRenderbufferParameteriv>
   28e88:	48 8b 45 f8          	mov    -0x8(%rbp),%rax
   28e8c:	48 8d 3d 8d 84 00 00 	lea    0x848d(%rip),%rdi        # 31320 <_IO_stdin_used+0x4320>
   28e93:	ff d0                	callq  *%rax
   28e95:	48 89 05 24 62 03 00 	mov    %rax,0x36224(%rip)        # 5f0c0 <glad_glIsFramebuffer>
   28e9c:	48 8b 45 f8          	mov    -0x8(%rbp),%rax
   28ea0:	48 8d 3d b9 84 00 00 	lea    0x84b9(%rip),%rdi        # 31360 <_IO_stdin_used+0x4360>
   28ea7:	ff d0                	callq  *%rax
   28ea9:	48 89 05 50 11 03 00 	mov    %rax,0x31150(%rip)        # 5a000 <glad_glBindFramebuffer>
   28eb0:	48 8b 45 f8          	mov    -0x8(%rbp),%rax
   28eb4:	48 8d 3d e5 84 00 00 	lea    0x84e5(%rip),%rdi        # 313a0 <_IO_stdin_used+0x43a0>
   28ebb:	ff d0                	callq  *%rax
   28ebd:	48 89 05 3c 29 03 00 	mov    %rax,0x3293c(%rip)        # 5b800 <glad_glDeleteFramebuffers>
   28ec4:	48 8b 45 f8          	mov    -0x8(%rbp),%rax
   28ec8:	48 8d 3d 11 85 00 00 	lea    0x8511(%rip),%rdi        # 313e0 <_IO_stdin_used+0x43e0>
   28ecf:	ff d0                	callq  *%rax
   28ed1:	48 89 05 68 39 03 00 	mov    %rax,0x33968(%rip)        # 5c840 <glad_glGenFramebuffers>
   28ed8:	48 8b 45 f8          	mov    -0x8(%rbp),%rax
   28edc:	48 8d 3d 3d 85 00 00 	lea    0x853d(%rip),%rdi        # 31420 <_IO_stdin_used+0x4420>
   28ee3:	ff d0                	callq  *%rax
   28ee5:	48 89 05 14 18 03 00 	mov    %rax,0x31814(%rip)        # 5a700 <glad_glCheckFramebufferStatus>
   28eec:	48 8b 45 f8          	mov    -0x8(%rbp),%rax
   28ef0:	48 8d 3d 69 85 00 00 	lea    0x8569(%rip),%rdi        # 31460 <_IO_stdin_used+0x4460>
   28ef7:	ff d0                	callq  *%rax
   28ef9:	48 89 05 c0 37 03 00 	mov    %rax,0x337c0(%rip)        # 5c6c0 <glad_glFramebufferTexture1D>
   28f00:	48 8b 45 f8          	mov    -0x8(%rbp),%rax
   28f04:	48 8d 3d 95 85 00 00 	lea    0x8595(%rip),%rdi        # 314a0 <_IO_stdin_used+0x44a0>
   28f0b:	ff d0                	callq  *%rax
   28f0d:	48 89 05 ec 37 03 00 	mov    %rax,0x337ec(%rip)        # 5c700 <glad_glFramebufferTexture2D>
   28f14:	48 8b 45 f8          	mov    -0x8(%rbp),%rax
   28f18:	48 8d 3d c1 85 00 00 	lea    0x85c1(%rip),%rdi        # 314e0 <_IO_stdin_used+0x44e0>
   28f1f:	ff d0                	callq  *%rax
   28f21:	48 89 05 18 38 03 00 	mov    %rax,0x33818(%rip)        # 5c740 <glad_glFramebufferTexture3D>
   28f28:	48 8b 45 f8          	mov    -0x8(%rbp),%rax
   28f2c:	48 8d 3d ed 85 00 00 	lea    0x85ed(%rip),%rdi        # 31520 <_IO_stdin_used+0x4520>
   28f33:	ff d0                	callq  *%rax
   28f35:	48 89 05 04 37 03 00 	mov    %rax,0x33704(%rip)        # 5c640 <glad_glFramebufferRenderbuffer>
   28f3c:	48 8b 45 f8          	mov    -0x8(%rbp),%rax
   28f40:	48 8d 3d 19 86 00 00 	lea    0x8619(%rip),%rdi        # 31560 <_IO_stdin_used+0x4560>
   28f47:	ff d0                	callq  *%rax
   28f49:	48 89 05 b0 42 03 00 	mov    %rax,0x342b0(%rip)        # 5d200 <glad_glGetFramebufferAttachmentParameteriv>
   28f50:	48 8b 45 f8          	mov    -0x8(%rbp),%rax
   28f54:	48 8d 3d 65 86 00 00 	lea    0x8665(%rip),%rdi        # 315c0 <_IO_stdin_used+0x45c0>
   28f5b:	ff d0                	callq  *%rax
   28f5d:	48 89 05 dc 3a 03 00 	mov    %rax,0x33adc(%rip)        # 5ca40 <glad_glGenerateMipmap>
   28f64:	48 8b 45 f8          	mov    -0x8(%rbp),%rax
   28f68:	48 8d 3d 91 86 00 00 	lea    0x8691(%rip),%rdi        # 31600 <_IO_stdin_used+0x4600>
   28f6f:	ff d0                	callq  *%rax
   28f71:	48 89 05 48 16 03 00 	mov    %rax,0x31648(%rip)        # 5a5c0 <glad_glBlitFramebuffer>
   28f78:	48 8b 45 f8          	mov    -0x8(%rbp),%rax
   28f7c:	48 8d 3d bd 86 00 00 	lea    0x86bd(%rip),%rdi        # 31640 <_IO_stdin_used+0x4640>
   28f83:	ff d0                	callq  *%rax
   28f85:	48 89 05 34 80 03 00 	mov    %rax,0x38034(%rip)        # 60fc0 <glad_glRenderbufferStorageMultisample>
   28f8c:	48 8b 45 f8          	mov    -0x8(%rbp),%rax
   28f90:	48 8d 3d 09 87 00 00 	lea    0x8709(%rip),%rdi        # 316a0 <_IO_stdin_used+0x46a0>
   28f97:	ff d0                	callq  *%rax
   28f99:	48 89 05 e0 37 03 00 	mov    %rax,0x337e0(%rip)        # 5c780 <glad_glFramebufferTextureLayer>
   28fa0:	48 8b 45 f8          	mov    -0x8(%rbp),%rax
   28fa4:	48 8d 3d 35 87 00 00 	lea    0x8735(%rip),%rdi        # 316e0 <_IO_stdin_used+0x46e0>
   28fab:	ff d0                	callq  *%rax
   28fad:	48 89 05 cc 64 03 00 	mov    %rax,0x364cc(%rip)        # 5f480 <glad_glMapBufferRange>
   28fb4:	48 8b 45 f8          	mov    -0x8(%rbp),%rax
   28fb8:	48 8d 3d 61 87 00 00 	lea    0x8761(%rip),%rdi        # 31720 <_IO_stdin_used+0x4720>
   28fbf:	ff d0                	callq  *%rax
   28fc1:	48 89 05 b8 35 03 00 	mov    %rax,0x335b8(%rip)        # 5c580 <glad_glFlushMappedBufferRange>
   28fc8:	48 8b 45 f8          	mov    -0x8(%rbp),%rax
   28fcc:	48 8d 3d 8d 87 00 00 	lea    0x878d(%rip),%rdi        # 31760 <_IO_stdin_used+0x4760>
   28fd3:	ff d0                	callq  *%rax
   28fd5:	48 89 05 e4 12 03 00 	mov    %rax,0x312e4(%rip)        # 5a2c0 <glad_glBindVertexArray>
   28fdc:	48 8b 45 f8          	mov    -0x8(%rbp),%rax
   28fe0:	48 8d 3d b9 87 00 00 	lea    0x87b9(%rip),%rdi        # 317a0 <_IO_stdin_used+0x47a0>
   28fe7:	ff d0                	callq  *%rax
   28fe9:	48 89 05 90 2a 03 00 	mov    %rax,0x32a90(%rip)        # 5ba80 <glad_glDeleteVertexArrays>
   28ff0:	48 8b 45 f8          	mov    -0x8(%rbp),%rax
   28ff4:	48 8d 3d e5 87 00 00 	lea    0x87e5(%rip),%rdi        # 317e0 <_IO_stdin_used+0x47e0>
   28ffb:	ff d0                	callq  *%rax
   28ffd:	48 89 05 fc 39 03 00 	mov    %rax,0x339fc(%rip)        # 5ca00 <glad_glGenVertexArrays>
   29004:	48 8b 45 f8          	mov    -0x8(%rbp),%rax
   29008:	48 8d 3d 11 88 00 00 	lea    0x8811(%rip),%rdi        # 31820 <_IO_stdin_used+0x4820>
   2900f:	ff d0                	callq  *%rax
   29011:	48 89 05 28 63 03 00 	mov    %rax,0x36328(%rip)        # 5f340 <glad_glIsVertexArray>
   29018:	eb 01                	jmp    2901b <_ZL19load_GL_VERSION_3_0PFPvPKcE+0x6ad>
   2901a:	90                   	nop
   2901b:	c9                   	leaveq 
   2901c:	c3                   	retq   

000000000002901d <_ZL19load_GL_VERSION_3_1PFPvPKcE>:
   2901d:	55                   	push   %rbp
   2901e:	48 89 e5             	mov    %rsp,%rbp
   29021:	48 83 ec 10          	sub    $0x10,%rsp
   29025:	48 89 7d f8          	mov    %rdi,-0x8(%rbp)
   29029:	8b 05 d1 09 03 00    	mov    0x309d1(%rip),%eax        # 59a00 <GLAD_GL_VERSION_3_1>
   2902f:	85 c0                	test   %eax,%eax
   29031:	0f 84 2e 01 00 00    	je     29165 <_ZL19load_GL_VERSION_3_1PFPvPKcE+0x148>
   29037:	48 8b 45 f8          	mov    -0x8(%rbp),%rax
   2903b:	48 8d 3d 1e 88 00 00 	lea    0x881e(%rip),%rdi        # 31860 <_IO_stdin_used+0x4860>
   29042:	ff d0                	callq  *%rax
   29044:	48 89 05 35 2e 03 00 	mov    %rax,0x32e35(%rip)        # 5be80 <glad_glDrawArraysInstanced>
   2904b:	48 8b 45 f8          	mov    -0x8(%rbp),%rax
   2904f:	48 8d 3d 4a 88 00 00 	lea    0x884a(%rip),%rdi        # 318a0 <_IO_stdin_used+0x48a0>
   29056:	ff d0                	callq  *%rax
   29058:	48 89 05 e1 2f 03 00 	mov    %rax,0x32fe1(%rip)        # 5c040 <glad_glDrawElementsInstanced>
   2905f:	48 8b 45 f8          	mov    -0x8(%rbp),%rax
   29063:	48 8d 3d 76 88 00 00 	lea    0x8876(%rip),%rdi        # 318e0 <_IO_stdin_used+0x48e0>
   2906a:	ff d0                	callq  *%rax
   2906c:	48 89 05 8d 85 03 00 	mov    %rax,0x3858d(%rip)        # 61600 <glad_glTexBuffer>
   29073:	48 8b 45 f8          	mov    -0x8(%rbp),%rax
   29077:	48 8d 3d a2 88 00 00 	lea    0x88a2(%rip),%rdi        # 31920 <_IO_stdin_used+0x4920>
   2907e:	ff d0                	callq  *%rax
   29080:	48 89 05 f9 6f 03 00 	mov    %rax,0x36ff9(%rip)        # 60080 <glad_glPrimitiveRestartIndex>
   29087:	48 8b 45 f8          	mov    -0x8(%rbp),%rax
   2908b:	48 8d 3d ce 88 00 00 	lea    0x88ce(%rip),%rdi        # 31960 <_IO_stdin_used+0x4960>
   29092:	ff d0                	callq  *%rax
   29094:	48 89 05 65 20 03 00 	mov    %rax,0x32065(%rip)        # 5b100 <glad_glCopyBufferSubData>
   2909b:	48 8b 45 f8          	mov    -0x8(%rbp),%rax
   2909f:	48 8d 3d fa 88 00 00 	lea    0x88fa(%rip),%rdi        # 319a0 <_IO_stdin_used+0x49a0>
   290a6:	ff d0                	callq  *%rax
   290a8:	48 89 05 51 54 03 00 	mov    %rax,0x35451(%rip)        # 5e500 <glad_glGetUniformIndices>
   290af:	48 8b 45 f8          	mov    -0x8(%rbp),%rax
   290b3:	48 8d 3d 26 89 00 00 	lea    0x8926(%rip),%rdi        # 319e0 <_IO_stdin_used+0x49e0>
   290ba:	ff d0                	callq  *%rax
   290bc:	48 89 05 3d 3c 03 00 	mov    %rax,0x33c3d(%rip)        # 5cd00 <glad_glGetActiveUniformsiv>
   290c3:	48 8b 45 f8          	mov    -0x8(%rbp),%rax
   290c7:	48 8d 3d 52 89 00 00 	lea    0x8952(%rip),%rdi        # 31a20 <_IO_stdin_used+0x4a20>
   290ce:	ff d0                	callq  *%rax
   290d0:	48 89 05 e9 3b 03 00 	mov    %rax,0x33be9(%rip)        # 5ccc0 <glad_glGetActiveUniformName>
   290d7:	48 8b 45 f8          	mov    -0x8(%rbp),%rax
   290db:	48 8d 3d 7e 89 00 00 	lea    0x897e(%rip),%rdi        # 31a60 <_IO_stdin_used+0x4a60>
   290e2:	ff d0                	callq  *%rax
   290e4:	48 89 05 d5 53 03 00 	mov    %rax,0x353d5(%rip)        # 5e4c0 <glad_glGetUniformBlockIndex>
   290eb:	48 8b 45 f8          	mov    -0x8(%rbp),%rax
   290ef:	48 8d 3d aa 89 00 00 	lea    0x89aa(%rip),%rdi        # 31aa0 <_IO_stdin_used+0x4aa0>
   290f6:	ff d0                	callq  *%rax
   290f8:	48 89 05 81 3b 03 00 	mov    %rax,0x33b81(%rip)        # 5cc80 <glad_glGetActiveUniformBlockiv>
   290ff:	48 8b 45 f8          	mov    -0x8(%rbp),%rax
   29103:	48 8d 3d d6 89 00 00 	lea    0x89d6(%rip),%rdi        # 31ae0 <_IO_stdin_used+0x4ae0>
   2910a:	ff d0                	callq  *%rax
   2910c:	48 89 05 2d 3b 03 00 	mov    %rax,0x33b2d(%rip)        # 5cc40 <glad_glGetActiveUniformBlockName>
   29113:	48 8b 45 f8          	mov    -0x8(%rbp),%rax
   29117:	48 8d 3d 02 8a 00 00 	lea    0x8a02(%rip),%rdi        # 31b20 <_IO_stdin_used+0x4b20>
   2911e:	ff d0                	callq  *%rax
   29120:	48 89 05 59 99 03 00 	mov    %rax,0x39959(%rip)        # 62a80 <glad_glUniformBlockBinding>
   29127:	48 8b 45 f8          	mov    -0x8(%rbp),%rax
   2912b:	48 8d 3d ee 73 00 00 	lea    0x73ee(%rip),%rdi        # 30520 <_IO_stdin_used+0x3520>
   29132:	ff d0                	callq  *%rax
   29134:	48 89 05 85 0d 03 00 	mov    %rax,0x30d85(%rip)        # 59ec0 <glad_glBindBufferRange>
   2913b:	48 8b 45 f8          	mov    -0x8(%rbp),%rax
   2913f:	48 8d 3d 1a 74 00 00 	lea    0x741a(%rip),%rdi        # 30560 <_IO_stdin_used+0x3560>
   29146:	ff d0                	callq  *%rax
   29148:	48 89 05 31 0d 03 00 	mov    %rax,0x30d31(%rip)        # 59e80 <glad_glBindBufferBase>
   2914f:	48 8b 45 f8          	mov    -0x8(%rbp),%rax
   29153:	48 8d 3d 46 72 00 00 	lea    0x7246(%rip),%rdi        # 303a0 <_IO_stdin_used+0x33a0>
   2915a:	ff d0                	callq  *%rax
   2915c:	48 89 05 dd 41 03 00 	mov    %rax,0x341dd(%rip)        # 5d340 <glad_glGetIntegeri_v>
   29163:	eb 01                	jmp    29166 <_ZL19load_GL_VERSION_3_1PFPvPKcE+0x149>
   29165:	90                   	nop
   29166:	c9                   	leaveq 
   29167:	c3                   	retq   

0000000000029168 <_ZL19load_GL_VERSION_3_2PFPvPKcE>:
   29168:	55                   	push   %rbp
   29169:	48 89 e5             	mov    %rsp,%rbp
   2916c:	48 83 ec 10          	sub    $0x10,%rsp
   29170:	48 89 7d f8          	mov    %rdi,-0x8(%rbp)
   29174:	8b 05 c6 08 03 00    	mov    0x308c6(%rip),%eax        # 59a40 <GLAD_GL_VERSION_3_2>
   2917a:	85 c0                	test   %eax,%eax
   2917c:	0f 84 7e 01 00 00    	je     29300 <_ZL19load_GL_VERSION_3_2PFPvPKcE+0x198>
   29182:	48 8b 45 f8          	mov    -0x8(%rbp),%rax
   29186:	48 8d 3d d3 89 00 00 	lea    0x89d3(%rip),%rdi        # 31b60 <_IO_stdin_used+0x4b60>
   2918d:	ff d0                	callq  *%rax
   2918f:	48 89 05 2a 2e 03 00 	mov    %rax,0x32e2a(%rip)        # 5bfc0 <glad_glDrawElementsBaseVertex>
   29196:	48 8b 45 f8          	mov    -0x8(%rbp),%rax
   2919a:	48 8d 3d ff 89 00 00 	lea    0x89ff(%rip),%rdi        # 31ba0 <_IO_stdin_used+0x4ba0>
   291a1:	ff d0                	callq  *%rax
   291a3:	48 89 05 d6 2f 03 00 	mov    %rax,0x32fd6(%rip)        # 5c180 <glad_glDrawRangeElementsBaseVertex>
   291aa:	48 8b 45 f8          	mov    -0x8(%rbp),%rax
   291ae:	48 8d 3d 2b 8a 00 00 	lea    0x8a2b(%rip),%rdi        # 31be0 <_IO_stdin_used+0x4be0>
   291b5:	ff d0                	callq  *%rax
   291b7:	48 89 05 02 2f 03 00 	mov    %rax,0x32f02(%rip)        # 5c0c0 <glad_glDrawElementsInstancedBaseVertex>
   291be:	48 8b 45 f8          	mov    -0x8(%rbp),%rax
   291c2:	48 8d 3d 77 8a 00 00 	lea    0x8a77(%rip),%rdi        # 31c40 <_IO_stdin_used+0x4c40>
   291c9:	ff d0                	callq  *%rax
   291cb:	48 89 05 ee 64 03 00 	mov    %rax,0x364ee(%rip)        # 5f6c0 <glad_glMultiDrawElementsBaseVertex>
   291d2:	48 8b 45 f8          	mov    -0x8(%rbp),%rax
   291d6:	48 8d 3d a3 8a 00 00 	lea    0x8aa3(%rip),%rdi        # 31c80 <_IO_stdin_used+0x4c80>
   291dd:	ff d0                	callq  *%rax
   291df:	48 89 05 da 7b 03 00 	mov    %rax,0x37bda(%rip)        # 60dc0 <glad_glProvokingVertex>
   291e6:	48 8b 45 f8          	mov    -0x8(%rbp),%rax
   291ea:	48 8d 3d cf 8a 00 00 	lea    0x8acf(%rip),%rdi        # 31cc0 <_IO_stdin_used+0x4cc0>
   291f1:	ff d0                	callq  *%rax
   291f3:	48 89 05 c6 32 03 00 	mov    %rax,0x332c6(%rip)        # 5c4c0 <glad_glFenceSync>
   291fa:	48 8b 45 f8          	mov    -0x8(%rbp),%rax
   291fe:	48 8d 3d fb 8a 00 00 	lea    0x8afb(%rip),%rdi        # 31d00 <_IO_stdin_used+0x4d00>
   29205:	ff d0                	callq  *%rax
   29207:	48 89 05 72 60 03 00 	mov    %rax,0x36072(%rip)        # 5f280 <glad_glIsSync>
   2920e:	48 8b 45 f8          	mov    -0x8(%rbp),%rax
   29212:	48 8d 3d 27 8b 00 00 	lea    0x8b27(%rip),%rdi        # 31d40 <_IO_stdin_used+0x4d40>
   29219:	ff d0                	callq  *%rax
   2921b:	48 89 05 9e 27 03 00 	mov    %rax,0x3279e(%rip)        # 5b9c0 <glad_glDeleteSync>
   29222:	48 8b 45 f8          	mov    -0x8(%rbp),%rax
   29226:	48 8d 3d 53 8b 00 00 	lea    0x8b53(%rip),%rdi        # 31d80 <_IO_stdin_used+0x4d80>
   2922d:	ff d0                	callq  *%rax
   2922f:	48 89 05 4a 1a 03 00 	mov    %rax,0x31a4a(%rip)        # 5ac80 <glad_glClientWaitSync>
   29236:	48 8b 45 f8          	mov    -0x8(%rbp),%rax
   2923a:	48 8d 3d 7f 8b 00 00 	lea    0x8b7f(%rip),%rdi        # 31dc0 <_IO_stdin_used+0x4dc0>
   29241:	ff d0                	callq  *%rax
   29243:	48 89 05 76 b7 03 00 	mov    %rax,0x3b776(%rip)        # 649c0 <glad_glWaitSync>
   2924a:	48 8b 45 f8          	mov    -0x8(%rbp),%rax
   2924e:	48 8d 3d ab 8b 00 00 	lea    0x8bab(%rip),%rdi        # 31e00 <_IO_stdin_used+0x4e00>
   29255:	ff d0                	callq  *%rax
   29257:	48 89 05 a2 40 03 00 	mov    %rax,0x340a2(%rip)        # 5d300 <glad_glGetInteger64v>
   2925e:	48 8b 45 f8          	mov    -0x8(%rbp),%rax
   29262:	48 8d 3d d7 8b 00 00 	lea    0x8bd7(%rip),%rdi        # 31e40 <_IO_stdin_used+0x4e40>
   29269:	ff d0                	callq  *%rax
   2926b:	48 89 05 4e 4d 03 00 	mov    %rax,0x34d4e(%rip)        # 5dfc0 <glad_glGetSynciv>
   29272:	48 8b 45 f8          	mov    -0x8(%rbp),%rax
   29276:	48 8d 3d 03 8c 00 00 	lea    0x8c03(%rip),%rdi        # 31e80 <_IO_stdin_used+0x4e80>
   2927d:	ff d0                	callq  *%rax
   2927f:	48 89 05 3a 40 03 00 	mov    %rax,0x3403a(%rip)        # 5d2c0 <glad_glGetInteger64i_v>
   29286:	48 8b 45 f8          	mov    -0x8(%rbp),%rax
   2928a:	48 8d 3d 2f 8c 00 00 	lea    0x8c2f(%rip),%rdi        # 31ec0 <_IO_stdin_used+0x4ec0>
   29291:	ff d0                	callq  *%rax
   29293:	48 89 05 a6 3b 03 00 	mov    %rax,0x33ba6(%rip)        # 5ce40 <glad_glGetBufferParameteri64v>
   2929a:	48 8b 45 f8          	mov    -0x8(%rbp),%rax
   2929e:	48 8d 3d 5b 8c 00 00 	lea    0x8c5b(%rip),%rdi        # 31f00 <_IO_stdin_used+0x4f00>
   292a5:	ff d0                	callq  *%rax
   292a7:	48 89 05 d2 33 03 00 	mov    %rax,0x333d2(%rip)        # 5c680 <glad_glFramebufferTexture>
   292ae:	48 8b 45 f8          	mov    -0x8(%rbp),%rax
   292b2:	48 8d 3d 87 8c 00 00 	lea    0x8c87(%rip),%rdi        # 31f40 <_IO_stdin_used+0x4f40>
   292b9:	ff d0                	callq  *%rax
   292bb:	48 89 05 3e 86 03 00 	mov    %rax,0x3863e(%rip)        # 61900 <glad_glTexImage2DMultisample>
   292c2:	48 8b 45 f8          	mov    -0x8(%rbp),%rax
   292c6:	48 8d 3d b3 8c 00 00 	lea    0x8cb3(%rip),%rdi        # 31f80 <_IO_stdin_used+0x4f80>
   292cd:	ff d0                	callq  *%rax
   292cf:	48 89 05 aa 86 03 00 	mov    %rax,0x386aa(%rip)        # 61980 <glad_glTexImage3DMultisample>
   292d6:	48 8b 45 f8          	mov    -0x8(%rbp),%rax
   292da:	48 8d 3d df 8c 00 00 	lea    0x8cdf(%rip),%rdi        # 31fc0 <_IO_stdin_used+0x4fc0>
   292e1:	ff d0                	callq  *%rax
   292e3:	48 89 05 56 41 03 00 	mov    %rax,0x34156(%rip)        # 5d440 <glad_glGetMultisamplefv>
   292ea:	48 8b 45 f8          	mov    -0x8(%rbp),%rax
   292ee:	48 8d 3d 0b 8d 00 00 	lea    0x8d0b(%rip),%rdi        # 32000 <_IO_stdin_used+0x5000>
   292f5:	ff d0                	callq  *%rax
   292f7:	48 89 05 82 7d 03 00 	mov    %rax,0x37d82(%rip)        # 61080 <glad_glSampleMaski>
   292fe:	eb 01                	jmp    29301 <_ZL19load_GL_VERSION_3_2PFPvPKcE+0x199>
   29300:	90                   	nop
   29301:	c9                   	leaveq 
   29302:	c3                   	retq   

0000000000029303 <_ZL19load_GL_VERSION_3_3PFPvPKcE>:
   29303:	55                   	push   %rbp
   29304:	48 89 e5             	mov    %rsp,%rbp
   29307:	48 83 ec 10          	sub    $0x10,%rsp
   2930b:	48 89 7d f8          	mov    %rdi,-0x8(%rbp)
   2930f:	8b 05 6b 07 03 00    	mov    0x3076b(%rip),%eax        # 59a80 <GLAD_GL_VERSION_3_3>
   29315:	85 c0                	test   %eax,%eax
   29317:	0f 84 8a 04 00 00    	je     297a7 <_ZL19load_GL_VERSION_3_3PFPvPKcE+0x4a4>
   2931d:	48 8b 45 f8          	mov    -0x8(%rbp),%rax
   29321:	48 8d 3d 18 8d 00 00 	lea    0x8d18(%rip),%rdi        # 32040 <_IO_stdin_used+0x5040>
   29328:	ff d0                	callq  *%rax
   2932a:	48 89 05 8f 0c 03 00 	mov    %rax,0x30c8f(%rip)        # 59fc0 <glad_glBindFragDataLocationIndexed>
   29331:	48 8b 45 f8          	mov    -0x8(%rbp),%rax
   29335:	48 8d 3d 44 8d 00 00 	lea    0x8d44(%rip),%rdi        # 32080 <_IO_stdin_used+0x5080>
   2933c:	ff d0                	callq  *%rax
   2933e:	48 89 05 3b 3e 03 00 	mov    %rax,0x33e3b(%rip)        # 5d180 <glad_glGetFragDataIndex>
   29345:	48 8b 45 f8          	mov    -0x8(%rbp),%rax
   29349:	48 8d 3d 70 8d 00 00 	lea    0x8d70(%rip),%rdi        # 320c0 <_IO_stdin_used+0x50c0>
   29350:	ff d0                	callq  *%rax
   29352:	48 89 05 e7 35 03 00 	mov    %rax,0x335e7(%rip)        # 5c940 <glad_glGenSamplers>
   29359:	48 8b 45 f8          	mov    -0x8(%rbp),%rax
   2935d:	48 8d 3d 9c 8d 00 00 	lea    0x8d9c(%rip),%rdi        # 32100 <_IO_stdin_used+0x5100>
   29364:	ff d0                	callq  *%rax
   29366:	48 89 05 d3 25 03 00 	mov    %rax,0x325d3(%rip)        # 5b940 <glad_glDeleteSamplers>
   2936d:	48 8b 45 f8          	mov    -0x8(%rbp),%rax
   29371:	48 8d 3d c8 8d 00 00 	lea    0x8dc8(%rip),%rdi        # 32140 <_IO_stdin_used+0x5140>
   29378:	ff d0                	callq  *%rax
   2937a:	48 89 05 7f 5e 03 00 	mov    %rax,0x35e7f(%rip)        # 5f200 <glad_glIsSampler>
   29381:	48 8b 45 f8          	mov    -0x8(%rbp),%rax
   29385:	48 8d 3d f4 8d 00 00 	lea    0x8df4(%rip),%rdi        # 32180 <_IO_stdin_used+0x5180>
   2938c:	ff d0                	callq  *%rax
   2938e:	48 89 05 ab 0d 03 00 	mov    %rax,0x30dab(%rip)        # 5a140 <glad_glBindSampler>
   29395:	48 8b 45 f8          	mov    -0x8(%rbp),%rax
   29399:	48 8d 3d 20 8e 00 00 	lea    0x8e20(%rip),%rdi        # 321c0 <_IO_stdin_used+0x51c0>
   293a0:	ff d0                	callq  *%rax
   293a2:	48 89 05 17 7e 03 00 	mov    %rax,0x37e17(%rip)        # 611c0 <glad_glSamplerParameteri>
   293a9:	48 8b 45 f8          	mov    -0x8(%rbp),%rax
   293ad:	48 8d 3d 4c 8e 00 00 	lea    0x8e4c(%rip),%rdi        # 32200 <_IO_stdin_used+0x5200>
   293b4:	ff d0                	callq  *%rax
   293b6:	48 89 05 43 7e 03 00 	mov    %rax,0x37e43(%rip)        # 61200 <glad_glSamplerParameteriv>
   293bd:	48 8b 45 f8          	mov    -0x8(%rbp),%rax
   293c1:	48 8d 3d 78 8e 00 00 	lea    0x8e78(%rip),%rdi        # 32240 <_IO_stdin_used+0x5240>
   293c8:	ff d0                	callq  *%rax
   293ca:	48 89 05 6f 7d 03 00 	mov    %rax,0x37d6f(%rip)        # 61140 <glad_glSamplerParameterf>
   293d1:	48 8b 45 f8          	mov    -0x8(%rbp),%rax
   293d5:	48 8d 3d a4 8e 00 00 	lea    0x8ea4(%rip),%rdi        # 32280 <_IO_stdin_used+0x5280>
   293dc:	ff d0                	callq  *%rax
   293de:	48 89 05 9b 7d 03 00 	mov    %rax,0x37d9b(%rip)        # 61180 <glad_glSamplerParameterfv>
   293e5:	48 8b 45 f8          	mov    -0x8(%rbp),%rax
   293e9:	48 8d 3d d0 8e 00 00 	lea    0x8ed0(%rip),%rdi        # 322c0 <_IO_stdin_used+0x52c0>
   293f0:	ff d0                	callq  *%rax
   293f2:	48 89 05 c7 7c 03 00 	mov    %rax,0x37cc7(%rip)        # 610c0 <glad_glSamplerParameterIiv>
   293f9:	48 8b 45 f8          	mov    -0x8(%rbp),%rax
   293fd:	48 8d 3d fc 8e 00 00 	lea    0x8efc(%rip),%rdi        # 32300 <_IO_stdin_used+0x5300>
   29404:	ff d0                	callq  *%rax
   29406:	48 89 05 f3 7c 03 00 	mov    %rax,0x37cf3(%rip)        # 61100 <glad_glSamplerParameterIuiv>
   2940d:	48 8b 45 f8          	mov    -0x8(%rbp),%rax
   29411:	48 8d 3d 28 8f 00 00 	lea    0x8f28(%rip),%rdi        # 32340 <_IO_stdin_used+0x5340>
   29418:	ff d0                	callq  *%rax
   2941a:	48 89 05 5f 49 03 00 	mov    %rax,0x3495f(%rip)        # 5dd80 <glad_glGetSamplerParameteriv>
   29421:	48 8b 45 f8          	mov    -0x8(%rbp),%rax
   29425:	48 8d 3d 54 8f 00 00 	lea    0x8f54(%rip),%rdi        # 32380 <_IO_stdin_used+0x5380>
   2942c:	ff d0                	callq  *%rax
   2942e:	48 89 05 8b 48 03 00 	mov    %rax,0x3488b(%rip)        # 5dcc0 <glad_glGetSamplerParameterIiv>
   29435:	48 8b 45 f8          	mov    -0x8(%rbp),%rax
   29439:	48 8d 3d 80 8f 00 00 	lea    0x8f80(%rip),%rdi        # 323c0 <_IO_stdin_used+0x53c0>
   29440:	ff d0                	callq  *%rax
   29442:	48 89 05 f7 48 03 00 	mov    %rax,0x348f7(%rip)        # 5dd40 <glad_glGetSamplerParameterfv>
   29449:	48 8b 45 f8          	mov    -0x8(%rbp),%rax
   2944d:	48 8d 3d ac 8f 00 00 	lea    0x8fac(%rip),%rdi        # 32400 <_IO_stdin_used+0x5400>
   29454:	ff d0                	callq  *%rax
   29456:	48 89 05 a3 48 03 00 	mov    %rax,0x348a3(%rip)        # 5dd00 <glad_glGetSamplerParameterIuiv>
   2945d:	48 8b 45 f8          	mov    -0x8(%rbp),%rax
   29461:	48 8d 3d d8 8f 00 00 	lea    0x8fd8(%rip),%rdi        # 32440 <_IO_stdin_used+0x5440>
   29468:	ff d0                	callq  *%rax
   2946a:	48 89 05 cf 79 03 00 	mov    %rax,0x379cf(%rip)        # 60e40 <glad_glQueryCounter>
   29471:	48 8b 45 f8          	mov    -0x8(%rbp),%rax
   29475:	48 8d 3d 04 90 00 00 	lea    0x9004(%rip),%rdi        # 32480 <_IO_stdin_used+0x5480>
   2947c:	ff d0                	callq  *%rax
   2947e:	48 89 05 bb 46 03 00 	mov    %rax,0x346bb(%rip)        # 5db40 <glad_glGetQueryObjecti64v>
   29485:	48 8b 45 f8          	mov    -0x8(%rbp),%rax
   29489:	48 8d 3d 30 90 00 00 	lea    0x9030(%rip),%rdi        # 324c0 <_IO_stdin_used+0x54c0>
   29490:	ff d0                	callq  *%rax
   29492:	48 89 05 27 47 03 00 	mov    %rax,0x34727(%rip)        # 5dbc0 <glad_glGetQueryObjectui64v>
   29499:	48 8b 45 f8          	mov    -0x8(%rbp),%rax
   2949d:	48 8d 3d 5c 90 00 00 	lea    0x905c(%rip),%rdi        # 32500 <_IO_stdin_used+0x5500>
   294a4:	ff d0                	callq  *%rax
   294a6:	48 89 05 93 a7 03 00 	mov    %rax,0x3a793(%rip)        # 63c40 <glad_glVertexAttribDivisor>
   294ad:	48 8b 45 f8          	mov    -0x8(%rbp),%rax
   294b1:	48 8d 3d 88 90 00 00 	lea    0x9088(%rip),%rdi        # 32540 <_IO_stdin_used+0x5540>
   294b8:	ff d0                	callq  *%rax
   294ba:	48 89 05 ff af 03 00 	mov    %rax,0x3afff(%rip)        # 644c0 <glad_glVertexAttribP1ui>
   294c1:	48 8b 45 f8          	mov    -0x8(%rbp),%rax
   294c5:	48 8d 3d b4 90 00 00 	lea    0x90b4(%rip),%rdi        # 32580 <_IO_stdin_used+0x5580>
   294cc:	ff d0                	callq  *%rax
   294ce:	48 89 05 2b b0 03 00 	mov    %rax,0x3b02b(%rip)        # 64500 <glad_glVertexAttribP1uiv>
   294d5:	48 8b 45 f8          	mov    -0x8(%rbp),%rax
   294d9:	48 8d 3d e0 90 00 00 	lea    0x90e0(%rip),%rdi        # 325c0 <_IO_stdin_used+0x55c0>
   294e0:	ff d0                	callq  *%rax
   294e2:	48 89 05 57 b0 03 00 	mov    %rax,0x3b057(%rip)        # 64540 <glad_glVertexAttribP2ui>
   294e9:	48 8b 45 f8          	mov    -0x8(%rbp),%rax
   294ed:	48 8d 3d 0c 91 00 00 	lea    0x910c(%rip),%rdi        # 32600 <_IO_stdin_used+0x5600>
   294f4:	ff d0                	callq  *%rax
   294f6:	48 89 05 83 b0 03 00 	mov    %rax,0x3b083(%rip)        # 64580 <glad_glVertexAttribP2uiv>
   294fd:	48 8b 45 f8          	mov    -0x8(%rbp),%rax
   29501:	48 8d 3d 38 91 00 00 	lea    0x9138(%rip),%rdi        # 32640 <_IO_stdin_used+0x5640>
   29508:	ff d0                	callq  *%rax
   2950a:	48 89 05 af b0 03 00 	mov    %rax,0x3b0af(%rip)        # 645c0 <glad_glVertexAttribP3ui>
   29511:	48 8b 45 f8          	mov    -0x8(%rbp),%rax
   29515:	48 8d 3d 64 91 00 00 	lea    0x9164(%rip),%rdi        # 32680 <_IO_stdin_used+0x5680>
   2951c:	ff d0                	callq  *%rax
   2951e:	48 89 05 db b0 03 00 	mov    %rax,0x3b0db(%rip)        # 64600 <glad_glVertexAttribP3uiv>
   29525:	48 8b 45 f8          	mov    -0x8(%rbp),%rax
   29529:	48 8d 3d 90 91 00 00 	lea    0x9190(%rip),%rdi        # 326c0 <_IO_stdin_used+0x56c0>
   29530:	ff d0                	callq  *%rax
   29532:	48 89 05 07 b1 03 00 	mov    %rax,0x3b107(%rip)        # 64640 <glad_glVertexAttribP4ui>
   29539:	48 8b 45 f8          	mov    -0x8(%rbp),%rax
   2953d:	48 8d 3d bc 91 00 00 	lea    0x91bc(%rip),%rdi        # 32700 <_IO_stdin_used+0x5700>
   29544:	ff d0                	callq  *%rax
   29546:	48 89 05 33 b1 03 00 	mov    %rax,0x3b133(%rip)        # 64680 <glad_glVertexAttribP4uiv>
   2954d:	48 8b 45 f8          	mov    -0x8(%rbp),%rax
   29551:	48 8d 3d e8 91 00 00 	lea    0x91e8(%rip),%rdi        # 32740 <_IO_stdin_used+0x5740>
   29558:	ff d0                	callq  *%rax
   2955a:	48 89 05 df b1 03 00 	mov    %rax,0x3b1df(%rip)        # 64740 <glad_glVertexP2ui>
   29561:	48 8b 45 f8          	mov    -0x8(%rbp),%rax
   29565:	48 8d 3d 14 92 00 00 	lea    0x9214(%rip),%rdi        # 32780 <_IO_stdin_used+0x5780>
   2956c:	ff d0                	callq  *%rax
   2956e:	48 89 05 0b b2 03 00 	mov    %rax,0x3b20b(%rip)        # 64780 <glad_glVertexP2uiv>
   29575:	48 8b 45 f8          	mov    -0x8(%rbp),%rax
   29579:	48 8d 3d 40 92 00 00 	lea    0x9240(%rip),%rdi        # 327c0 <_IO_stdin_used+0x57c0>
   29580:	ff d0                	callq  *%rax
   29582:	48 89 05 37 b2 03 00 	mov    %rax,0x3b237(%rip)        # 647c0 <glad_glVertexP3ui>
   29589:	48 8b 45 f8          	mov    -0x8(%rbp),%rax
   2958d:	48 8d 3d 6c 92 00 00 	lea    0x926c(%rip),%rdi        # 32800 <_IO_stdin_used+0x5800>
   29594:	ff d0                	callq  *%rax
   29596:	48 89 05 63 b2 03 00 	mov    %rax,0x3b263(%rip)        # 64800 <glad_glVertexP3uiv>
   2959d:	48 8b 45 f8          	mov    -0x8(%rbp),%rax
   295a1:	48 8d 3d 98 92 00 00 	lea    0x9298(%rip),%rdi        # 32840 <_IO_stdin_used+0x5840>
   295a8:	ff d0                	callq  *%rax
   295aa:	48 89 05 8f b2 03 00 	mov    %rax,0x3b28f(%rip)        # 64840 <glad_glVertexP4ui>
   295b1:	48 8b 45 f8          	mov    -0x8(%rbp),%rax
   295b5:	48 8d 3d c4 92 00 00 	lea    0x92c4(%rip),%rdi        # 32880 <_IO_stdin_used+0x5880>
   295bc:	ff d0                	callq  *%rax
   295be:	48 89 05 bb b2 03 00 	mov    %rax,0x3b2bb(%rip)        # 64880 <glad_glVertexP4uiv>
   295c5:	48 8b 45 f8          	mov    -0x8(%rbp),%rax
   295c9:	48 8d 3d f0 92 00 00 	lea    0x92f0(%rip),%rdi        # 328c0 <_IO_stdin_used+0x58c0>
   295d0:	ff d0                	callq  *%rax
   295d2:	48 89 05 a7 80 03 00 	mov    %rax,0x380a7(%rip)        # 61680 <glad_glTexCoordP1ui>
   295d9:	48 8b 45 f8          	mov    -0x8(%rbp),%rax
   295dd:	48 8d 3d 1c 93 00 00 	lea    0x931c(%rip),%rdi        # 32900 <_IO_stdin_used+0x5900>
   295e4:	ff d0                	callq  *%rax
   295e6:	48 89 05 d3 80 03 00 	mov    %rax,0x380d3(%rip)        # 616c0 <glad_glTexCoordP1uiv>
   295ed:	48 8b 45 f8          	mov    -0x8(%rbp),%rax
   295f1:	48 8d 3d 48 93 00 00 	lea    0x9348(%rip),%rdi        # 32940 <_IO_stdin_used+0x5940>
   295f8:	ff d0                	callq  *%rax
   295fa:	48 89 05 ff 80 03 00 	mov    %rax,0x380ff(%rip)        # 61700 <glad_glTexCoordP2ui>
   29601:	48 8b 45 f8          	mov    -0x8(%rbp),%rax
   29605:	48 8d 3d 74 93 00 00 	lea    0x9374(%rip),%rdi        # 32980 <_IO_stdin_used+0x5980>
   2960c:	ff d0                	callq  *%rax
   2960e:	48 89 05 2b 81 03 00 	mov    %rax,0x3812b(%rip)        # 61740 <glad_glTexCoordP2uiv>
   29615:	48 8b 45 f8          	mov    -0x8(%rbp),%rax
   29619:	48 8d 3d a0 93 00 00 	lea    0x93a0(%rip),%rdi        # 329c0 <_IO_stdin_used+0x59c0>
   29620:	ff d0                	callq  *%rax
   29622:	48 89 05 57 81 03 00 	mov    %rax,0x38157(%rip)        # 61780 <glad_glTexCoordP3ui>
   29629:	48 8b 45 f8          	mov    -0x8(%rbp),%rax
   2962d:	48 8d 3d cc 93 00 00 	lea    0x93cc(%rip),%rdi        # 32a00 <_IO_stdin_used+0x5a00>
   29634:	ff d0                	callq  *%rax
   29636:	48 89 05 83 81 03 00 	mov    %rax,0x38183(%rip)        # 617c0 <glad_glTexCoordP3uiv>
   2963d:	48 8b 45 f8          	mov    -0x8(%rbp),%rax
   29641:	48 8d 3d f8 93 00 00 	lea    0x93f8(%rip),%rdi        # 32a40 <_IO_stdin_used+0x5a40>
   29648:	ff d0                	callq  *%rax
   2964a:	48 89 05 af 81 03 00 	mov    %rax,0x381af(%rip)        # 61800 <glad_glTexCoordP4ui>
   29651:	48 8b 45 f8          	mov    -0x8(%rbp),%rax
   29655:	48 8d 3d 24 94 00 00 	lea    0x9424(%rip),%rdi        # 32a80 <_IO_stdin_used+0x5a80>
   2965c:	ff d0                	callq  *%rax
   2965e:	48 89 05 db 81 03 00 	mov    %rax,0x381db(%rip)        # 61840 <glad_glTexCoordP4uiv>
   29665:	48 8b 45 f8          	mov    -0x8(%rbp),%rax
   29669:	48 8d 3d 50 94 00 00 	lea    0x9450(%rip),%rdi        # 32ac0 <_IO_stdin_used+0x5ac0>
   29670:	ff d0                	callq  *%rax
   29672:	48 89 05 c7 60 03 00 	mov    %rax,0x360c7(%rip)        # 5f740 <glad_glMultiTexCoordP1ui>
   29679:	48 8b 45 f8          	mov    -0x8(%rbp),%rax
   2967d:	48 8d 3d 7c 94 00 00 	lea    0x947c(%rip),%rdi        # 32b00 <_IO_stdin_used+0x5b00>
   29684:	ff d0                	callq  *%rax
   29686:	48 89 05 f3 60 03 00 	mov    %rax,0x360f3(%rip)        # 5f780 <glad_glMultiTexCoordP1uiv>
   2968d:	48 8b 45 f8          	mov    -0x8(%rbp),%rax
   29691:	48 8d 3d a8 94 00 00 	lea    0x94a8(%rip),%rdi        # 32b40 <_IO_stdin_used+0x5b40>
   29698:	ff d0                	callq  *%rax
   2969a:	48 89 05 1f 61 03 00 	mov    %rax,0x3611f(%rip)        # 5f7c0 <glad_glMultiTexCoordP2ui>
   296a1:	48 8b 45 f8          	mov    -0x8(%rbp),%rax
   296a5:	48 8d 3d d4 94 00 00 	lea    0x94d4(%rip),%rdi        # 32b80 <_IO_stdin_used+0x5b80>
   296ac:	ff d0                	callq  *%rax
   296ae:	48 89 05 4b 61 03 00 	mov    %rax,0x3614b(%rip)        # 5f800 <glad_glMultiTexCoordP2uiv>
   296b5:	48 8b 45 f8          	mov    -0x8(%rbp),%rax
   296b9:	48 8d 3d 00 95 00 00 	lea    0x9500(%rip),%rdi        # 32bc0 <_IO_stdin_used+0x5bc0>
   296c0:	ff d0                	callq  *%rax
   296c2:	48 89 05 77 61 03 00 	mov    %rax,0x36177(%rip)        # 5f840 <glad_glMultiTexCoordP3ui>
   296c9:	48 8b 45 f8          	mov    -0x8(%rbp),%rax
   296cd:	48 8d 3d 2c 95 00 00 	lea    0x952c(%rip),%rdi        # 32c00 <_IO_stdin_used+0x5c00>
   296d4:	ff d0                	callq  *%rax
   296d6:	48 89 05 a3 61 03 00 	mov    %rax,0x361a3(%rip)        # 5f880 <glad_glMultiTexCoordP3uiv>
   296dd:	48 8b 45 f8          	mov    -0x8(%rbp),%rax
   296e1:	48 8d 3d 58 95 00 00 	lea    0x9558(%rip),%rdi        # 32c40 <_IO_stdin_used+0x5c40>
   296e8:	ff d0                	callq  *%rax
   296ea:	48 89 05 cf 61 03 00 	mov    %rax,0x361cf(%rip)        # 5f8c0 <glad_glMultiTexCoordP4ui>
   296f1:	48 8b 45 f8          	mov    -0x8(%rbp),%rax
   296f5:	48 8d 3d 84 95 00 00 	lea    0x9584(%rip),%rdi        # 32c80 <_IO_stdin_used+0x5c80>
   296fc:	ff d0                	callq  *%rax
   296fe:	48 89 05 fb 61 03 00 	mov    %rax,0x361fb(%rip)        # 5f900 <glad_glMultiTexCoordP4uiv>
   29705:	48 8b 45 f8          	mov    -0x8(%rbp),%rax
   29709:	48 8d 3d b0 95 00 00 	lea    0x95b0(%rip),%rdi        # 32cc0 <_IO_stdin_used+0x5cc0>
   29710:	ff d0                	callq  *%rax
   29712:	48 89 05 27 65 03 00 	mov    %rax,0x36527(%rip)        # 5fc40 <glad_glNormalP3ui>
   29719:	48 8b 45 f8          	mov    -0x8(%rbp),%rax
   2971d:	48 8d 3d dc 95 00 00 	lea    0x95dc(%rip),%rdi        # 32d00 <_IO_stdin_used+0x5d00>
   29724:	ff d0                	callq  *%rax
   29726:	48 89 05 53 65 03 00 	mov    %rax,0x36553(%rip)        # 5fc80 <glad_glNormalP3uiv>
   2972d:	48 8b 45 f8          	mov    -0x8(%rbp),%rax
   29731:	48 8d 3d 08 96 00 00 	lea    0x9608(%rip),%rdi        # 32d40 <_IO_stdin_used+0x5d40>
   29738:	ff d0                	callq  *%rax
   2973a:	48 89 05 3f 16 03 00 	mov    %rax,0x3163f(%rip)        # 5ad80 <glad_glColorP3ui>
   29741:	48 8b 45 f8          	mov    -0x8(%rbp),%rax
   29745:	48 8d 3d 34 96 00 00 	lea    0x9634(%rip),%rdi        # 32d80 <_IO_stdin_used+0x5d80>
   2974c:	ff d0                	callq  *%rax
   2974e:	48 89 05 6b 16 03 00 	mov    %rax,0x3166b(%rip)        # 5adc0 <glad_glColorP3uiv>
   29755:	48 8b 45 f8          	mov    -0x8(%rbp),%rax
   29759:	48 8d 3d 60 96 00 00 	lea    0x9660(%rip),%rdi        # 32dc0 <_IO_stdin_used+0x5dc0>
   29760:	ff d0                	callq  *%rax
   29762:	48 89 05 97 16 03 00 	mov    %rax,0x31697(%rip)        # 5ae00 <glad_glColorP4ui>
   29769:	48 8b 45 f8          	mov    -0x8(%rbp),%rax
   2976d:	48 8d 3d 8c 96 00 00 	lea    0x968c(%rip),%rdi        # 32e00 <_IO_stdin_used+0x5e00>
   29774:	ff d0                	callq  *%rax
   29776:	48 89 05 c3 16 03 00 	mov    %rax,0x316c3(%rip)        # 5ae40 <glad_glColorP4uiv>
   2977d:	48 8b 45 f8          	mov    -0x8(%rbp),%rax
   29781:	48 8d 3d b8 96 00 00 	lea    0x96b8(%rip),%rdi        # 32e40 <_IO_stdin_used+0x5e40>
   29788:	ff d0                	callq  *%rax
   2978a:	48 89 05 af 7b 03 00 	mov    %rax,0x37baf(%rip)        # 61340 <glad_glSecondaryColorP3ui>
   29791:	48 8b 45 f8          	mov    -0x8(%rbp),%rax
   29795:	48 8d 3d e4 96 00 00 	lea    0x96e4(%rip),%rdi        # 32e80 <_IO_stdin_used+0x5e80>
   2979c:	ff d0                	callq  *%rax
   2979e:	48 89 05 db 7b 03 00 	mov    %rax,0x37bdb(%rip)        # 61380 <glad_glSecondaryColorP3uiv>
   297a5:	eb 01                	jmp    297a8 <_ZL19load_GL_VERSION_3_3PFPvPKcE+0x4a5>
   297a7:	90                   	nop
   297a8:	c9                   	leaveq 
   297a9:	c3                   	retq   

00000000000297aa <_ZL19load_GL_VERSION_4_0PFPvPKcE>:
   297aa:	55                   	push   %rbp
   297ab:	48 89 e5             	mov    %rsp,%rbp
   297ae:	48 83 ec 10          	sub    $0x10,%rsp
   297b2:	48 89 7d f8          	mov    %rdi,-0x8(%rbp)
   297b6:	8b 05 04 03 03 00    	mov    0x30304(%rip),%eax        # 59ac0 <GLAD_GL_VERSION_4_0>
   297bc:	85 c0                	test   %eax,%eax
   297be:	0f 84 9a 03 00 00    	je     29b5e <_ZL19load_GL_VERSION_4_0PFPvPKcE+0x3b4>
   297c4:	48 8b 45 f8          	mov    -0x8(%rbp),%rax
   297c8:	48 8d 3d f1 96 00 00 	lea    0x96f1(%rip),%rdi        # 32ec0 <_IO_stdin_used+0x5ec0>
   297cf:	ff d0                	callq  *%rax
   297d1:	48 89 05 e8 5d 03 00 	mov    %rax,0x35de8(%rip)        # 5f5c0 <glad_glMinSampleShading>
   297d8:	48 8b 45 f8          	mov    -0x8(%rbp),%rax
   297dc:	48 8d 3d 1d 97 00 00 	lea    0x971d(%rip),%rdi        # 32f00 <_IO_stdin_used+0x5f00>
   297e3:	ff d0                	callq  *%rax
   297e5:	48 89 05 94 0c 03 00 	mov    %rax,0x30c94(%rip)        # 5a480 <glad_glBlendEquationi>
   297ec:	48 8b 45 f8          	mov    -0x8(%rbp),%rax
   297f0:	48 8d 3d 49 97 00 00 	lea    0x9749(%rip),%rdi        # 32f40 <_IO_stdin_used+0x5f40>
   297f7:	ff d0                	callq  *%rax
   297f9:	48 89 05 40 0c 03 00 	mov    %rax,0x30c40(%rip)        # 5a440 <glad_glBlendEquationSeparatei>
   29800:	48 8b 45 f8          	mov    -0x8(%rbp),%rax
   29804:	48 8d 3d 75 97 00 00 	lea    0x9775(%rip),%rdi        # 32f80 <_IO_stdin_used+0x5f80>
   2980b:	ff d0                	callq  *%rax
   2980d:	48 89 05 6c 0d 03 00 	mov    %rax,0x30d6c(%rip)        # 5a580 <glad_glBlendFunci>
   29814:	48 8b 45 f8          	mov    -0x8(%rbp),%rax
   29818:	48 8d 3d a1 97 00 00 	lea    0x97a1(%rip),%rdi        # 32fc0 <_IO_stdin_used+0x5fc0>
   2981f:	ff d0                	callq  *%rax
   29821:	48 89 05 18 0d 03 00 	mov    %rax,0x30d18(%rip)        # 5a540 <glad_glBlendFuncSeparatei>
   29828:	48 8b 45 f8          	mov    -0x8(%rbp),%rax
   2982c:	48 8d 3d cd 97 00 00 	lea    0x97cd(%rip),%rdi        # 33000 <_IO_stdin_used+0x6000>
   29833:	ff d0                	callq  *%rax
   29835:	48 89 05 04 26 03 00 	mov    %rax,0x32604(%rip)        # 5be40 <glad_glDrawArraysIndirect>
   2983c:	48 8b 45 f8          	mov    -0x8(%rbp),%rax
   29840:	48 8d 3d f9 97 00 00 	lea    0x97f9(%rip),%rdi        # 33040 <_IO_stdin_used+0x6040>
   29847:	ff d0                	callq  *%rax
   29849:	48 89 05 b0 27 03 00 	mov    %rax,0x327b0(%rip)        # 5c000 <glad_glDrawElementsIndirect>
   29850:	48 8b 45 f8          	mov    -0x8(%rbp),%rax
   29854:	48 8d 3d 25 98 00 00 	lea    0x9825(%rip),%rdi        # 33080 <_IO_stdin_used+0x6080>
   2985b:	ff d0                	callq  *%rax
   2985d:	48 89 05 1c 8a 03 00 	mov    %rax,0x38a1c(%rip)        # 62280 <glad_glUniform1d>
   29864:	48 8b 45 f8          	mov    -0x8(%rbp),%rax
   29868:	48 8d 3d 51 98 00 00 	lea    0x9851(%rip),%rdi        # 330c0 <_IO_stdin_used+0x60c0>
   2986f:	ff d0                	callq  *%rax
   29871:	48 89 05 08 8c 03 00 	mov    %rax,0x38c08(%rip)        # 62480 <glad_glUniform2d>
   29878:	48 8b 45 f8          	mov    -0x8(%rbp),%rax
   2987c:	48 8d 3d 7d 98 00 00 	lea    0x987d(%rip),%rdi        # 33100 <_IO_stdin_used+0x6100>
   29883:	ff d0                	callq  *%rax
   29885:	48 89 05 f4 8d 03 00 	mov    %rax,0x38df4(%rip)        # 62680 <glad_glUniform3d>
   2988c:	48 8b 45 f8          	mov    -0x8(%rbp),%rax
   29890:	48 8d 3d a9 98 00 00 	lea    0x98a9(%rip),%rdi        # 33140 <_IO_stdin_used+0x6140>
   29897:	ff d0                	callq  *%rax
   29899:	48 89 05 e0 8f 03 00 	mov    %rax,0x38fe0(%rip)        # 62880 <glad_glUniform4d>
   298a0:	48 8b 45 f8          	mov    -0x8(%rbp),%rax
   298a4:	48 8d 3d d5 98 00 00 	lea    0x98d5(%rip),%rdi        # 33180 <_IO_stdin_used+0x6180>
   298ab:	ff d0                	callq  *%rax
   298ad:	48 89 05 0c 8a 03 00 	mov    %rax,0x38a0c(%rip)        # 622c0 <glad_glUniform1dv>
   298b4:	48 8b 45 f8          	mov    -0x8(%rbp),%rax
   298b8:	48 8d 3d 01 99 00 00 	lea    0x9901(%rip),%rdi        # 331c0 <_IO_stdin_used+0x61c0>
   298bf:	ff d0                	callq  *%rax
   298c1:	48 89 05 f8 8b 03 00 	mov    %rax,0x38bf8(%rip)        # 624c0 <glad_glUniform2dv>
   298c8:	48 8b 45 f8          	mov    -0x8(%rbp),%rax
   298cc:	48 8d 3d 2d 99 00 00 	lea    0x992d(%rip),%rdi        # 33200 <_IO_stdin_used+0x6200>
   298d3:	ff d0                	callq  *%rax
   298d5:	48 89 05 e4 8d 03 00 	mov    %rax,0x38de4(%rip)        # 626c0 <glad_glUniform3dv>
   298dc:	48 8b 45 f8          	mov    -0x8(%rbp),%rax
   298e0:	48 8d 3d 59 99 00 00 	lea    0x9959(%rip),%rdi        # 33240 <_IO_stdin_used+0x6240>
   298e7:	ff d0                	callq  *%rax
   298e9:	48 89 05 d0 8f 03 00 	mov    %rax,0x38fd0(%rip)        # 628c0 <glad_glUniform4dv>
   298f0:	48 8b 45 f8          	mov    -0x8(%rbp),%rax
   298f4:	48 8d 3d 85 99 00 00 	lea    0x9985(%rip),%rdi        # 33280 <_IO_stdin_used+0x6280>
   298fb:	ff d0                	callq  *%rax
   298fd:	48 89 05 bc 91 03 00 	mov    %rax,0x391bc(%rip)        # 62ac0 <glad_glUniformMatrix2dv>
   29904:	48 8b 45 f8          	mov    -0x8(%rbp),%rax
   29908:	48 8d 3d b1 99 00 00 	lea    0x99b1(%rip),%rdi        # 332c0 <_IO_stdin_used+0x62c0>
   2990f:	ff d0                	callq  *%rax
   29911:	48 89 05 28 93 03 00 	mov    %rax,0x39328(%rip)        # 62c40 <glad_glUniformMatrix3dv>
   29918:	48 8b 45 f8          	mov    -0x8(%rbp),%rax
   2991c:	48 8d 3d dd 99 00 00 	lea    0x99dd(%rip),%rdi        # 33300 <_IO_stdin_used+0x6300>
   29923:	ff d0                	callq  *%rax
   29925:	48 89 05 94 94 03 00 	mov    %rax,0x39494(%rip)        # 62dc0 <glad_glUniformMatrix4dv>
   2992c:	48 8b 45 f8          	mov    -0x8(%rbp),%rax
   29930:	48 8d 3d 09 9a 00 00 	lea    0x9a09(%rip),%rdi        # 33340 <_IO_stdin_used+0x6340>
   29937:	ff d0                	callq  *%rax
   29939:	48 89 05 00 92 03 00 	mov    %rax,0x39200(%rip)        # 62b40 <glad_glUniformMatrix2x3dv>
   29940:	48 8b 45 f8          	mov    -0x8(%rbp),%rax
   29944:	48 8d 3d 35 9a 00 00 	lea    0x9a35(%rip),%rdi        # 33380 <_IO_stdin_used+0x6380>
   2994b:	ff d0                	callq  *%rax
   2994d:	48 89 05 6c 92 03 00 	mov    %rax,0x3926c(%rip)        # 62bc0 <glad_glUniformMatrix2x4dv>
   29954:	48 8b 45 f8          	mov    -0x8(%rbp),%rax
   29958:	48 8d 3d 61 9a 00 00 	lea    0x9a61(%rip),%rdi        # 333c0 <_IO_stdin_used+0x63c0>
   2995f:	ff d0                	callq  *%rax
   29961:	48 89 05 58 93 03 00 	mov    %rax,0x39358(%rip)        # 62cc0 <glad_glUniformMatrix3x2dv>
   29968:	48 8b 45 f8          	mov    -0x8(%rbp),%rax
   2996c:	48 8d 3d 8d 9a 00 00 	lea    0x9a8d(%rip),%rdi        # 33400 <_IO_stdin_used+0x6400>
   29973:	ff d0                	callq  *%rax
   29975:	48 89 05 c4 93 03 00 	mov    %rax,0x393c4(%rip)        # 62d40 <glad_glUniformMatrix3x4dv>
   2997c:	48 8b 45 f8          	mov    -0x8(%rbp),%rax
   29980:	48 8d 3d b9 9a 00 00 	lea    0x9ab9(%rip),%rdi        # 33440 <_IO_stdin_used+0x6440>
   29987:	ff d0                	callq  *%rax
   29989:	48 89 05 b0 94 03 00 	mov    %rax,0x394b0(%rip)        # 62e40 <glad_glUniformMatrix4x2dv>
   29990:	48 8b 45 f8          	mov    -0x8(%rbp),%rax
   29994:	48 8d 3d e5 9a 00 00 	lea    0x9ae5(%rip),%rdi        # 33480 <_IO_stdin_used+0x6480>
   2999b:	ff d0                	callq  *%rax
   2999d:	48 89 05 1c 95 03 00 	mov    %rax,0x3951c(%rip)        # 62ec0 <glad_glUniformMatrix4x3dv>
   299a4:	48 8b 45 f8          	mov    -0x8(%rbp),%rax
   299a8:	48 8d 3d 11 9b 00 00 	lea    0x9b11(%rip),%rdi        # 334c0 <_IO_stdin_used+0x64c0>
   299af:	ff d0                	callq  *%rax
   299b1:	48 89 05 08 4c 03 00 	mov    %rax,0x34c08(%rip)        # 5e5c0 <glad_glGetUniformdv>
   299b8:	48 8b 45 f8          	mov    -0x8(%rbp),%rax
   299bc:	48 8d 3d 3d 9b 00 00 	lea    0x9b3d(%rip),%rdi        # 33500 <_IO_stdin_used+0x6500>
   299c3:	ff d0                	callq  *%rax
   299c5:	48 89 05 b4 45 03 00 	mov    %rax,0x345b4(%rip)        # 5df80 <glad_glGetSubroutineUniformLocation>
   299cc:	48 8b 45 f8          	mov    -0x8(%rbp),%rax
   299d0:	48 8d 3d 69 9b 00 00 	lea    0x9b69(%rip),%rdi        # 33540 <_IO_stdin_used+0x6540>
   299d7:	ff d0                	callq  *%rax
   299d9:	48 89 05 60 45 03 00 	mov    %rax,0x34560(%rip)        # 5df40 <glad_glGetSubroutineIndex>
   299e0:	48 8b 45 f8          	mov    -0x8(%rbp),%rax
   299e4:	48 8d 3d 95 9b 00 00 	lea    0x9b95(%rip),%rdi        # 33580 <_IO_stdin_used+0x6580>
   299eb:	ff d0                	callq  *%rax
   299ed:	48 89 05 cc 31 03 00 	mov    %rax,0x331cc(%rip)        # 5cbc0 <glad_glGetActiveSubroutineUniformiv>
   299f4:	48 8b 45 f8          	mov    -0x8(%rbp),%rax
   299f8:	48 8d 3d c1 9b 00 00 	lea    0x9bc1(%rip),%rdi        # 335c0 <_IO_stdin_used+0x65c0>
   299ff:	ff d0                	callq  *%rax
   29a01:	48 89 05 78 31 03 00 	mov    %rax,0x33178(%rip)        # 5cb80 <glad_glGetActiveSubroutineUniformName>
   29a08:	48 8b 45 f8          	mov    -0x8(%rbp),%rax
   29a0c:	48 8d 3d 0d 9c 00 00 	lea    0x9c0d(%rip),%rdi        # 33620 <_IO_stdin_used+0x6620>
   29a13:	ff d0                	callq  *%rax
   29a15:	48 89 05 24 31 03 00 	mov    %rax,0x33124(%rip)        # 5cb40 <glad_glGetActiveSubroutineName>
   29a1c:	48 8b 45 f8          	mov    -0x8(%rbp),%rax
   29a20:	48 8d 3d 39 9c 00 00 	lea    0x9c39(%rip),%rdi        # 33660 <_IO_stdin_used+0x6660>
   29a27:	ff d0                	callq  *%rax
   29a29:	48 89 05 10 95 03 00 	mov    %rax,0x39510(%rip)        # 62f40 <glad_glUniformSubroutinesuiv>
   29a30:	48 8b 45 f8          	mov    -0x8(%rbp),%rax
   29a34:	48 8d 3d 65 9c 00 00 	lea    0x9c65(%rip),%rdi        # 336a0 <_IO_stdin_used+0x66a0>
   29a3b:	ff d0                	callq  *%rax
   29a3d:	48 89 05 3c 4b 03 00 	mov    %rax,0x34b3c(%rip)        # 5e580 <glad_glGetUniformSubroutineuiv>
   29a44:	48 8b 45 f8          	mov    -0x8(%rbp),%rax
   29a48:	48 8d 3d 91 9c 00 00 	lea    0x9c91(%rip),%rdi        # 336e0 <_IO_stdin_used+0x66e0>
   29a4f:	ff d0                	callq  *%rax
   29a51:	48 89 05 28 3f 03 00 	mov    %rax,0x33f28(%rip)        # 5d980 <glad_glGetProgramStageiv>
   29a58:	48 8b 45 f8          	mov    -0x8(%rbp),%rax
   29a5c:	48 8d 3d bd 9c 00 00 	lea    0x9cbd(%rip),%rdi        # 33720 <_IO_stdin_used+0x6720>
   29a63:	ff d0                	callq  *%rax
   29a65:	48 89 05 14 63 03 00 	mov    %rax,0x36314(%rip)        # 5fd80 <glad_glPatchParameteri>
   29a6c:	48 8b 45 f8          	mov    -0x8(%rbp),%rax
   29a70:	48 8d 3d e9 9c 00 00 	lea    0x9ce9(%rip),%rdi        # 33760 <_IO_stdin_used+0x6760>
   29a77:	ff d0                	callq  *%rax
   29a79:	48 89 05 c0 62 03 00 	mov    %rax,0x362c0(%rip)        # 5fd40 <glad_glPatchParameterfv>
   29a80:	48 8b 45 f8          	mov    -0x8(%rbp),%rax
   29a84:	48 8d 3d 15 9d 00 00 	lea    0x9d15(%rip),%rdi        # 337a0 <_IO_stdin_used+0x67a0>
   29a8b:	ff d0                	callq  *%rax
   29a8d:	48 89 05 ec 07 03 00 	mov    %rax,0x307ec(%rip)        # 5a280 <glad_glBindTransformFeedback>
   29a94:	48 8b 45 f8          	mov    -0x8(%rbp),%rax
   29a98:	48 8d 3d 41 9d 00 00 	lea    0x9d41(%rip),%rdi        # 337e0 <_IO_stdin_used+0x67e0>
   29a9f:	ff d0                	callq  *%rax
   29aa1:	48 89 05 98 1f 03 00 	mov    %rax,0x31f98(%rip)        # 5ba40 <glad_glDeleteTransformFeedbacks>
   29aa8:	48 8b 45 f8          	mov    -0x8(%rbp),%rax
   29aac:	48 8d 3d 6d 9d 00 00 	lea    0x9d6d(%rip),%rdi        # 33820 <_IO_stdin_used+0x6820>
   29ab3:	ff d0                	callq  *%rax
   29ab5:	48 89 05 04 2f 03 00 	mov    %rax,0x32f04(%rip)        # 5c9c0 <glad_glGenTransformFeedbacks>
   29abc:	48 8b 45 f8          	mov    -0x8(%rbp),%rax
   29ac0:	48 8d 3d 99 9d 00 00 	lea    0x9d99(%rip),%rdi        # 33860 <_IO_stdin_used+0x6860>
   29ac7:	ff d0                	callq  *%rax
   29ac9:	48 89 05 30 58 03 00 	mov    %rax,0x35830(%rip)        # 5f300 <glad_glIsTransformFeedback>
   29ad0:	48 8b 45 f8          	mov    -0x8(%rbp),%rax
   29ad4:	48 8d 3d c5 9d 00 00 	lea    0x9dc5(%rip),%rdi        # 338a0 <_IO_stdin_used+0x68a0>
   29adb:	ff d0                	callq  *%rax
   29add:	48 89 05 dc 62 03 00 	mov    %rax,0x362dc(%rip)        # 5fdc0 <glad_glPauseTransformFeedback>
   29ae4:	48 8b 45 f8          	mov    -0x8(%rbp),%rax
   29ae8:	48 8d 3d f1 9d 00 00 	lea    0x9df1(%rip),%rdi        # 338e0 <_IO_stdin_used+0x68e0>
   29aef:	ff d0                	callq  *%rax
   29af1:	48 89 05 08 75 03 00 	mov    %rax,0x37508(%rip)        # 61000 <glad_glResumeTransformFeedback>
   29af8:	48 8b 45 f8          	mov    -0x8(%rbp),%rax
   29afc:	48 8d 3d 1d 9e 00 00 	lea    0x9e1d(%rip),%rdi        # 33920 <_IO_stdin_used+0x6920>
   29b03:	ff d0                	callq  *%rax
   29b05:	48 89 05 b4 26 03 00 	mov    %rax,0x326b4(%rip)        # 5c1c0 <glad_glDrawTransformFeedback>
   29b0c:	48 8b 45 f8          	mov    -0x8(%rbp),%rax
   29b10:	48 8d 3d 49 9e 00 00 	lea    0x9e49(%rip),%rdi        # 33960 <_IO_stdin_used+0x6960>
   29b17:	ff d0                	callq  *%rax
   29b19:	48 89 05 20 27 03 00 	mov    %rax,0x32720(%rip)        # 5c240 <glad_glDrawTransformFeedbackStream>
   29b20:	48 8b 45 f8          	mov    -0x8(%rbp),%rax
   29b24:	48 8d 3d 75 9e 00 00 	lea    0x9e75(%rip),%rdi        # 339a0 <_IO_stdin_used+0x69a0>
   29b2b:	ff d0                	callq  *%rax
   29b2d:	48 89 05 4c 02 03 00 	mov    %rax,0x3024c(%rip)        # 59d80 <glad_glBeginQueryIndexed>
   29b34:	48 8b 45 f8          	mov    -0x8(%rbp),%rax
   29b38:	48 8d 3d a1 9e 00 00 	lea    0x9ea1(%rip),%rdi        # 339e0 <_IO_stdin_used+0x69e0>
   29b3f:	ff d0                	callq  *%rax
   29b41:	48 89 05 f8 28 03 00 	mov    %rax,0x328f8(%rip)        # 5c440 <glad_glEndQueryIndexed>
   29b48:	48 8b 45 f8          	mov    -0x8(%rbp),%rax
   29b4c:	48 8d 3d cd 9e 00 00 	lea    0x9ecd(%rip),%rdi        # 33a20 <_IO_stdin_used+0x6a20>
   29b53:	ff d0                	callq  *%rax
   29b55:	48 89 05 a4 3f 03 00 	mov    %rax,0x33fa4(%rip)        # 5db00 <glad_glGetQueryIndexediv>
   29b5c:	eb 01                	jmp    29b5f <_ZL19load_GL_VERSION_4_0PFPvPKcE+0x3b5>
   29b5e:	90                   	nop
   29b5f:	c9                   	leaveq 
   29b60:	c3                   	retq   

0000000000029b61 <_ZL19load_GL_VERSION_4_1PFPvPKcE>:
   29b61:	55                   	push   %rbp
   29b62:	48 89 e5             	mov    %rsp,%rbp
   29b65:	48 83 ec 10          	sub    $0x10,%rsp
   29b69:	48 89 7d f8          	mov    %rdi,-0x8(%rbp)
   29b6d:	8b 05 8d ff 02 00    	mov    0x2ff8d(%rip),%eax        # 59b00 <GLAD_GL_VERSION_4_1>
   29b73:	85 c0                	test   %eax,%eax
   29b75:	0f 84 f6 06 00 00    	je     2a271 <_ZL19load_GL_VERSION_4_1PFPvPKcE+0x710>
   29b7b:	48 8b 45 f8          	mov    -0x8(%rbp),%rax
   29b7f:	48 8d 3d da 9e 00 00 	lea    0x9eda(%rip),%rdi        # 33a60 <_IO_stdin_used+0x6a60>
   29b86:	ff d0                	callq  *%rax
   29b88:	48 89 05 b1 73 03 00 	mov    %rax,0x373b1(%rip)        # 60f40 <glad_glReleaseShaderCompiler>
   29b8f:	48 8b 45 f8          	mov    -0x8(%rbp),%rax
   29b93:	48 8d 3d 06 9f 00 00 	lea    0x9f06(%rip),%rdi        # 33aa0 <_IO_stdin_used+0x6aa0>
   29b9a:	ff d0                	callq  *%rax
   29b9c:	48 89 05 1d 78 03 00 	mov    %rax,0x3781d(%rip)        # 613c0 <glad_glShaderBinary>
   29ba3:	48 8b 45 f8          	mov    -0x8(%rbp),%rax
   29ba7:	48 8d 3d 32 9f 00 00 	lea    0x9f32(%rip),%rdi        # 33ae0 <_IO_stdin_used+0x6ae0>
   29bae:	ff d0                	callq  *%rax
   29bb0:	48 89 05 49 42 03 00 	mov    %rax,0x34249(%rip)        # 5de00 <glad_glGetShaderPrecisionFormat>
   29bb7:	48 8b 45 f8          	mov    -0x8(%rbp),%rax
   29bbb:	48 8d 3d 5e 9f 00 00 	lea    0x9f5e(%rip),%rdi        # 33b20 <_IO_stdin_used+0x6b20>
   29bc2:	ff d0                	callq  *%rax
   29bc4:	48 89 05 35 20 03 00 	mov    %rax,0x32035(%rip)        # 5bc00 <glad_glDepthRangef>
   29bcb:	48 8b 45 f8          	mov    -0x8(%rbp),%rax
   29bcf:	48 8d 3d 8a 9f 00 00 	lea    0x9f8a(%rip),%rdi        # 33b60 <_IO_stdin_used+0x6b60>
   29bd6:	ff d0                	callq  *%rax
   29bd8:	48 89 05 21 0e 03 00 	mov    %rax,0x30e21(%rip)        # 5aa00 <glad_glClearDepthf>
   29bdf:	48 8b 45 f8          	mov    -0x8(%rbp),%rax
   29be3:	48 8d 3d b6 9f 00 00 	lea    0x9fb6(%rip),%rdi        # 33ba0 <_IO_stdin_used+0x6ba0>
   29bea:	ff d0                	callq  *%rax
   29bec:	48 89 05 0d 3b 03 00 	mov    %rax,0x33b0d(%rip)        # 5d700 <glad_glGetProgramBinary>
   29bf3:	48 8b 45 f8          	mov    -0x8(%rbp),%rax
   29bf7:	48 8d 3d e2 9f 00 00 	lea    0x9fe2(%rip),%rdi        # 33be0 <_IO_stdin_used+0x6be0>
   29bfe:	ff d0                	callq  *%rax
   29c00:	48 89 05 b9 64 03 00 	mov    %rax,0x364b9(%rip)        # 600c0 <glad_glProgramBinary>
   29c07:	48 8b 45 f8          	mov    -0x8(%rbp),%rax
   29c0b:	48 8d 3d 0e a0 00 00 	lea    0xa00e(%rip),%rdi        # 33c20 <_IO_stdin_used+0x6c20>
   29c12:	ff d0                	callq  *%rax
   29c14:	48 89 05 e5 64 03 00 	mov    %rax,0x364e5(%rip)        # 60100 <glad_glProgramParameteri>
   29c1b:	48 8b 45 f8          	mov    -0x8(%rbp),%rax
   29c1f:	48 8d 3d 3a a0 00 00 	lea    0xa03a(%rip),%rdi        # 33c60 <_IO_stdin_used+0x6c60>
   29c26:	ff d0                	callq  *%rax
   29c28:	48 89 05 11 94 03 00 	mov    %rax,0x39411(%rip)        # 63040 <glad_glUseProgramStages>
   29c2f:	48 8b 45 f8          	mov    -0x8(%rbp),%rax
   29c33:	48 8d 3d 66 a0 00 00 	lea    0xa066(%rip),%rdi        # 33ca0 <_IO_stdin_used+0x6ca0>
   29c3a:	ff d0                	callq  *%rax
   29c3c:	48 89 05 fd ff 02 00 	mov    %rax,0x2fffd(%rip)        # 59c40 <glad_glActiveShaderProgram>
   29c43:	48 8b 45 f8          	mov    -0x8(%rbp),%rax
   29c47:	48 8d 3d 92 a0 00 00 	lea    0xa092(%rip),%rdi        # 33ce0 <_IO_stdin_used+0x6ce0>
   29c4e:	ff d0                	callq  *%rax
   29c50:	48 89 05 69 19 03 00 	mov    %rax,0x31969(%rip)        # 5b5c0 <glad_glCreateShaderProgramv>
   29c57:	48 8b 45 f8          	mov    -0x8(%rbp),%rax
   29c5b:	48 8d 3d be a0 00 00 	lea    0xa0be(%rip),%rdi        # 33d20 <_IO_stdin_used+0x6d20>
   29c62:	ff d0                	callq  *%rax
   29c64:	48 89 05 55 04 03 00 	mov    %rax,0x30455(%rip)        # 5a0c0 <glad_glBindProgramPipeline>
   29c6b:	48 8b 45 f8          	mov    -0x8(%rbp),%rax
   29c6f:	48 8d 3d ea a0 00 00 	lea    0xa0ea(%rip),%rdi        # 33d60 <_IO_stdin_used+0x6d60>
   29c76:	ff d0                	callq  *%rax
   29c78:	48 89 05 01 1c 03 00 	mov    %rax,0x31c01(%rip)        # 5b880 <glad_glDeleteProgramPipelines>
   29c7f:	48 8b 45 f8          	mov    -0x8(%rbp),%rax
   29c83:	48 8d 3d 16 a1 00 00 	lea    0xa116(%rip),%rdi        # 33da0 <_IO_stdin_used+0x6da0>
   29c8a:	ff d0                	callq  *%rax
   29c8c:	48 89 05 ed 2b 03 00 	mov    %rax,0x32bed(%rip)        # 5c880 <glad_glGenProgramPipelines>
   29c93:	48 8b 45 f8          	mov    -0x8(%rbp),%rax
   29c97:	48 8d 3d 42 a1 00 00 	lea    0xa142(%rip),%rdi        # 33de0 <_IO_stdin_used+0x6de0>
   29c9e:	ff d0                	callq  *%rax
   29ca0:	48 89 05 99 54 03 00 	mov    %rax,0x35499(%rip)        # 5f140 <glad_glIsProgramPipeline>
   29ca7:	48 8b 45 f8          	mov    -0x8(%rbp),%rax
   29cab:	48 8d 3d 6e a1 00 00 	lea    0xa16e(%rip),%rdi        # 33e20 <_IO_stdin_used+0x6e20>
   29cb2:	ff d0                	callq  *%rax
   29cb4:	48 89 05 45 3b 03 00 	mov    %rax,0x33b45(%rip)        # 5d800 <glad_glGetProgramPipelineiv>
   29cbb:	48 8b 45 f8          	mov    -0x8(%rbp),%rax
   29cbf:	48 8d 3d 5a 9f 00 00 	lea    0x9f5a(%rip),%rdi        # 33c20 <_IO_stdin_used+0x6c20>
   29cc6:	ff d0                	callq  *%rax
   29cc8:	48 89 05 31 64 03 00 	mov    %rax,0x36431(%rip)        # 60100 <glad_glProgramParameteri>
   29ccf:	48 8b 45 f8          	mov    -0x8(%rbp),%rax
   29cd3:	48 8d 3d 86 a1 00 00 	lea    0xa186(%rip),%rdi        # 33e60 <_IO_stdin_used+0x6e60>
   29cda:	ff d0                	callq  *%rax
   29cdc:	48 89 05 5d 65 03 00 	mov    %rax,0x3655d(%rip)        # 60240 <glad_glProgramUniform1i>
   29ce3:	48 8b 45 f8          	mov    -0x8(%rbp),%rax
   29ce7:	48 8d 3d b2 a1 00 00 	lea    0xa1b2(%rip),%rdi        # 33ea0 <_IO_stdin_used+0x6ea0>
   29cee:	ff d0                	callq  *%rax
   29cf0:	48 89 05 89 65 03 00 	mov    %rax,0x36589(%rip)        # 60280 <glad_glProgramUniform1iv>
   29cf7:	48 8b 45 f8          	mov    -0x8(%rbp),%rax
   29cfb:	48 8d 3d de a1 00 00 	lea    0xa1de(%rip),%rdi        # 33ee0 <_IO_stdin_used+0x6ee0>
   29d02:	ff d0                	callq  *%rax
   29d04:	48 89 05 b5 64 03 00 	mov    %rax,0x364b5(%rip)        # 601c0 <glad_glProgramUniform1f>
   29d0b:	48 8b 45 f8          	mov    -0x8(%rbp),%rax
   29d0f:	48 8d 3d 0a a2 00 00 	lea    0xa20a(%rip),%rdi        # 33f20 <_IO_stdin_used+0x6f20>
   29d16:	ff d0                	callq  *%rax
   29d18:	48 89 05 e1 64 03 00 	mov    %rax,0x364e1(%rip)        # 60200 <glad_glProgramUniform1fv>
   29d1f:	48 8b 45 f8          	mov    -0x8(%rbp),%rax
   29d23:	48 8d 3d 36 a2 00 00 	lea    0xa236(%rip),%rdi        # 33f60 <_IO_stdin_used+0x6f60>
   29d2a:	ff d0                	callq  *%rax
   29d2c:	48 89 05 0d 64 03 00 	mov    %rax,0x3640d(%rip)        # 60140 <glad_glProgramUniform1d>
   29d33:	48 8b 45 f8          	mov    -0x8(%rbp),%rax
   29d37:	48 8d 3d 62 a2 00 00 	lea    0xa262(%rip),%rdi        # 33fa0 <_IO_stdin_used+0x6fa0>
   29d3e:	ff d0                	callq  *%rax
   29d40:	48 89 05 39 64 03 00 	mov    %rax,0x36439(%rip)        # 60180 <glad_glProgramUniform1dv>
   29d47:	48 8b 45 f8          	mov    -0x8(%rbp),%rax
   29d4b:	48 8d 3d 8e a2 00 00 	lea    0xa28e(%rip),%rdi        # 33fe0 <_IO_stdin_used+0x6fe0>
   29d52:	ff d0                	callq  *%rax
   29d54:	48 89 05 65 65 03 00 	mov    %rax,0x36565(%rip)        # 602c0 <glad_glProgramUniform1ui>
   29d5b:	48 8b 45 f8          	mov    -0x8(%rbp),%rax
   29d5f:	48 8d 3d ba a2 00 00 	lea    0xa2ba(%rip),%rdi        # 34020 <_IO_stdin_used+0x7020>
   29d66:	ff d0                	callq  *%rax
   29d68:	48 89 05 91 65 03 00 	mov    %rax,0x36591(%rip)        # 60300 <glad_glProgramUniform1uiv>
   29d6f:	48 8b 45 f8          	mov    -0x8(%rbp),%rax
   29d73:	48 8d 3d e6 a2 00 00 	lea    0xa2e6(%rip),%rdi        # 34060 <_IO_stdin_used+0x7060>
   29d7a:	ff d0                	callq  *%rax
   29d7c:	48 89 05 bd 66 03 00 	mov    %rax,0x366bd(%rip)        # 60440 <glad_glProgramUniform2i>
   29d83:	48 8b 45 f8          	mov    -0x8(%rbp),%rax
   29d87:	48 8d 3d 12 a3 00 00 	lea    0xa312(%rip),%rdi        # 340a0 <_IO_stdin_used+0x70a0>
   29d8e:	ff d0                	callq  *%rax
   29d90:	48 89 05 e9 66 03 00 	mov    %rax,0x366e9(%rip)        # 60480 <glad_glProgramUniform2iv>
   29d97:	48 8b 45 f8          	mov    -0x8(%rbp),%rax
   29d9b:	48 8d 3d 3e a3 00 00 	lea    0xa33e(%rip),%rdi        # 340e0 <_IO_stdin_used+0x70e0>
   29da2:	ff d0                	callq  *%rax
   29da4:	48 89 05 15 66 03 00 	mov    %rax,0x36615(%rip)        # 603c0 <glad_glProgramUniform2f>
   29dab:	48 8b 45 f8          	mov    -0x8(%rbp),%rax
   29daf:	48 8d 3d 6a a3 00 00 	lea    0xa36a(%rip),%rdi        # 34120 <_IO_stdin_used+0x7120>
   29db6:	ff d0                	callq  *%rax
   29db8:	48 89 05 41 66 03 00 	mov    %rax,0x36641(%rip)        # 60400 <glad_glProgramUniform2fv>
   29dbf:	48 8b 45 f8          	mov    -0x8(%rbp),%rax
   29dc3:	48 8d 3d 96 a3 00 00 	lea    0xa396(%rip),%rdi        # 34160 <_IO_stdin_used+0x7160>
   29dca:	ff d0                	callq  *%rax
   29dcc:	48 89 05 6d 65 03 00 	mov    %rax,0x3656d(%rip)        # 60340 <glad_glProgramUniform2d>
   29dd3:	48 8b 45 f8          	mov    -0x8(%rbp),%rax
   29dd7:	48 8d 3d c2 a3 00 00 	lea    0xa3c2(%rip),%rdi        # 341a0 <_IO_stdin_used+0x71a0>
   29dde:	ff d0                	callq  *%rax
   29de0:	48 89 05 99 65 03 00 	mov    %rax,0x36599(%rip)        # 60380 <glad_glProgramUniform2dv>
   29de7:	48 8b 45 f8          	mov    -0x8(%rbp),%rax
   29deb:	48 8d 3d ee a3 00 00 	lea    0xa3ee(%rip),%rdi        # 341e0 <_IO_stdin_used+0x71e0>
   29df2:	ff d0                	callq  *%rax
   29df4:	48 89 05 c5 66 03 00 	mov    %rax,0x366c5(%rip)        # 604c0 <glad_glProgramUniform2ui>
   29dfb:	48 8b 45 f8          	mov    -0x8(%rbp),%rax
   29dff:	48 8d 3d 1a a4 00 00 	lea    0xa41a(%rip),%rdi        # 34220 <_IO_stdin_used+0x7220>
   29e06:	ff d0                	callq  *%rax
   29e08:	48 89 05 f1 66 03 00 	mov    %rax,0x366f1(%rip)        # 60500 <glad_glProgramUniform2uiv>
   29e0f:	48 8b 45 f8          	mov    -0x8(%rbp),%rax
   29e13:	48 8d 3d 46 a4 00 00 	lea    0xa446(%rip),%rdi        # 34260 <_IO_stdin_used+0x7260>
   29e1a:	ff d0                	callq  *%rax
   29e1c:	48 89 05 1d 68 03 00 	mov    %rax,0x3681d(%rip)        # 60640 <glad_glProgramUniform3i>
   29e23:	48 8b 45 f8          	mov    -0x8(%rbp),%rax
   29e27:	48 8d 3d 72 a4 00 00 	lea    0xa472(%rip),%rdi        # 342a0 <_IO_stdin_used+0x72a0>
   29e2e:	ff d0                	callq  *%rax
   29e30:	48 89 05 49 68 03 00 	mov    %rax,0x36849(%rip)        # 60680 <glad_glProgramUniform3iv>
   29e37:	48 8b 45 f8          	mov    -0x8(%rbp),%rax
   29e3b:	48 8d 3d 9e a4 00 00 	lea    0xa49e(%rip),%rdi        # 342e0 <_IO_stdin_used+0x72e0>
   29e42:	ff d0                	callq  *%rax
   29e44:	48 89 05 75 67 03 00 	mov    %rax,0x36775(%rip)        # 605c0 <glad_glProgramUniform3f>
   29e4b:	48 8b 45 f8          	mov    -0x8(%rbp),%rax
   29e4f:	48 8d 3d ca a4 00 00 	lea    0xa4ca(%rip),%rdi        # 34320 <_IO_stdin_used+0x7320>
   29e56:	ff d0                	callq  *%rax
   29e58:	48 89 05 a1 67 03 00 	mov    %rax,0x367a1(%rip)        # 60600 <glad_glProgramUniform3fv>
   29e5f:	48 8b 45 f8          	mov    -0x8(%rbp),%rax
   29e63:	48 8d 3d f6 a4 00 00 	lea    0xa4f6(%rip),%rdi        # 34360 <_IO_stdin_used+0x7360>
   29e6a:	ff d0                	callq  *%rax
   29e6c:	48 89 05 cd 66 03 00 	mov    %rax,0x366cd(%rip)        # 60540 <glad_glProgramUniform3d>
   29e73:	48 8b 45 f8          	mov    -0x8(%rbp),%rax
   29e77:	48 8d 3d 22 a5 00 00 	lea    0xa522(%rip),%rdi        # 343a0 <_IO_stdin_used+0x73a0>
   29e7e:	ff d0                	callq  *%rax
   29e80:	48 89 05 f9 66 03 00 	mov    %rax,0x366f9(%rip)        # 60580 <glad_glProgramUniform3dv>
   29e87:	48 8b 45 f8          	mov    -0x8(%rbp),%rax
   29e8b:	48 8d 3d 4e a5 00 00 	lea    0xa54e(%rip),%rdi        # 343e0 <_IO_stdin_used+0x73e0>
   29e92:	ff d0                	callq  *%rax
   29e94:	48 89 05 25 68 03 00 	mov    %rax,0x36825(%rip)        # 606c0 <glad_glProgramUniform3ui>
   29e9b:	48 8b 45 f8          	mov    -0x8(%rbp),%rax
   29e9f:	48 8d 3d 7a a5 00 00 	lea    0xa57a(%rip),%rdi        # 34420 <_IO_stdin_used+0x7420>
   29ea6:	ff d0                	callq  *%rax
   29ea8:	48 89 05 51 68 03 00 	mov    %rax,0x36851(%rip)        # 60700 <glad_glProgramUniform3uiv>
   29eaf:	48 8b 45 f8          	mov    -0x8(%rbp),%rax
   29eb3:	48 8d 3d a6 a5 00 00 	lea    0xa5a6(%rip),%rdi        # 34460 <_IO_stdin_used+0x7460>
   29eba:	ff d0                	callq  *%rax
   29ebc:	48 89 05 7d 69 03 00 	mov    %rax,0x3697d(%rip)        # 60840 <glad_glProgramUniform4i>
   29ec3:	48 8b 45 f8          	mov    -0x8(%rbp),%rax
   29ec7:	48 8d 3d d2 a5 00 00 	lea    0xa5d2(%rip),%rdi        # 344a0 <_IO_stdin_used+0x74a0>
   29ece:	ff d0                	callq  *%rax
   29ed0:	48 89 05 a9 69 03 00 	mov    %rax,0x369a9(%rip)        # 60880 <glad_glProgramUniform4iv>
   29ed7:	48 8b 45 f8          	mov    -0x8(%rbp),%rax
   29edb:	48 8d 3d fe a5 00 00 	lea    0xa5fe(%rip),%rdi        # 344e0 <_IO_stdin_used+0x74e0>
   29ee2:	ff d0                	callq  *%rax
   29ee4:	48 89 05 d5 68 03 00 	mov    %rax,0x368d5(%rip)        # 607c0 <glad_glProgramUniform4f>
   29eeb:	48 8b 45 f8          	mov    -0x8(%rbp),%rax
   29eef:	48 8d 3d 2a a6 00 00 	lea    0xa62a(%rip),%rdi        # 34520 <_IO_stdin_used+0x7520>
   29ef6:	ff d0                	callq  *%rax
   29ef8:	48 89 05 01 69 03 00 	mov    %rax,0x36901(%rip)        # 60800 <glad_glProgramUniform4fv>
   29eff:	48 8b 45 f8          	mov    -0x8(%rbp),%rax
   29f03:	48 8d 3d 56 a6 00 00 	lea    0xa656(%rip),%rdi        # 34560 <_IO_stdin_used+0x7560>
   29f0a:	ff d0                	callq  *%rax
   29f0c:	48 89 05 2d 68 03 00 	mov    %rax,0x3682d(%rip)        # 60740 <glad_glProgramUniform4d>
   29f13:	48 8b 45 f8          	mov    -0x8(%rbp),%rax
   29f17:	48 8d 3d 82 a6 00 00 	lea    0xa682(%rip),%rdi        # 345a0 <_IO_stdin_used+0x75a0>
   29f1e:	ff d0                	callq  *%rax
   29f20:	48 89 05 59 68 03 00 	mov    %rax,0x36859(%rip)        # 60780 <glad_glProgramUniform4dv>
   29f27:	48 8b 45 f8          	mov    -0x8(%rbp),%rax
   29f2b:	48 8d 3d ae a6 00 00 	lea    0xa6ae(%rip),%rdi        # 345e0 <_IO_stdin_used+0x75e0>
   29f32:	ff d0                	callq  *%rax
   29f34:	48 89 05 85 69 03 00 	mov    %rax,0x36985(%rip)        # 608c0 <glad_glProgramUniform4ui>
   29f3b:	48 8b 45 f8          	mov    -0x8(%rbp),%rax
   29f3f:	48 8d 3d da a6 00 00 	lea    0xa6da(%rip),%rdi        # 34620 <_IO_stdin_used+0x7620>
   29f46:	ff d0                	callq  *%rax
   29f48:	48 89 05 b1 69 03 00 	mov    %rax,0x369b1(%rip)        # 60900 <glad_glProgramUniform4uiv>
   29f4f:	48 8b 45 f8          	mov    -0x8(%rbp),%rax
   29f53:	48 8d 3d 06 a7 00 00 	lea    0xa706(%rip),%rdi        # 34660 <_IO_stdin_used+0x7660>
   29f5a:	ff d0                	callq  *%rax
   29f5c:	48 89 05 1d 6a 03 00 	mov    %rax,0x36a1d(%rip)        # 60980 <glad_glProgramUniformMatrix2fv>
   29f63:	48 8b 45 f8          	mov    -0x8(%rbp),%rax
   29f67:	48 8d 3d 32 a7 00 00 	lea    0xa732(%rip),%rdi        # 346a0 <_IO_stdin_used+0x76a0>
   29f6e:	ff d0                	callq  *%rax
   29f70:	48 89 05 89 6b 03 00 	mov    %rax,0x36b89(%rip)        # 60b00 <glad_glProgramUniformMatrix3fv>
   29f77:	48 8b 45 f8          	mov    -0x8(%rbp),%rax
   29f7b:	48 8d 3d 5e a7 00 00 	lea    0xa75e(%rip),%rdi        # 346e0 <_IO_stdin_used+0x76e0>
   29f82:	ff d0                	callq  *%rax
   29f84:	48 89 05 f5 6c 03 00 	mov    %rax,0x36cf5(%rip)        # 60c80 <glad_glProgramUniformMatrix4fv>
   29f8b:	48 8b 45 f8          	mov    -0x8(%rbp),%rax
   29f8f:	48 8d 3d 8a a7 00 00 	lea    0xa78a(%rip),%rdi        # 34720 <_IO_stdin_used+0x7720>
   29f96:	ff d0                	callq  *%rax
   29f98:	48 89 05 a1 69 03 00 	mov    %rax,0x369a1(%rip)        # 60940 <glad_glProgramUniformMatrix2dv>
   29f9f:	48 8b 45 f8          	mov    -0x8(%rbp),%rax
   29fa3:	48 8d 3d b6 a7 00 00 	lea    0xa7b6(%rip),%rdi        # 34760 <_IO_stdin_used+0x7760>
   29faa:	ff d0                	callq  *%rax
   29fac:	48 89 05 0d 6b 03 00 	mov    %rax,0x36b0d(%rip)        # 60ac0 <glad_glProgramUniformMatrix3dv>
   29fb3:	48 8b 45 f8          	mov    -0x8(%rbp),%rax
   29fb7:	48 8d 3d e2 a7 00 00 	lea    0xa7e2(%rip),%rdi        # 347a0 <_IO_stdin_used+0x77a0>
   29fbe:	ff d0                	callq  *%rax
   29fc0:	48 89 05 79 6c 03 00 	mov    %rax,0x36c79(%rip)        # 60c40 <glad_glProgramUniformMatrix4dv>
   29fc7:	48 8b 45 f8          	mov    -0x8(%rbp),%rax
   29fcb:	48 8d 3d 0e a8 00 00 	lea    0xa80e(%rip),%rdi        # 347e0 <_IO_stdin_used+0x77e0>
   29fd2:	ff d0                	callq  *%rax
   29fd4:	48 89 05 25 6a 03 00 	mov    %rax,0x36a25(%rip)        # 60a00 <glad_glProgramUniformMatrix2x3fv>
   29fdb:	48 8b 45 f8          	mov    -0x8(%rbp),%rax
   29fdf:	48 8d 3d 3a a8 00 00 	lea    0xa83a(%rip),%rdi        # 34820 <_IO_stdin_used+0x7820>
   29fe6:	ff d0                	callq  *%rax
   29fe8:	48 89 05 91 6b 03 00 	mov    %rax,0x36b91(%rip)        # 60b80 <glad_glProgramUniformMatrix3x2fv>
   29fef:	48 8b 45 f8          	mov    -0x8(%rbp),%rax
   29ff3:	48 8d 3d 66 a8 00 00 	lea    0xa866(%rip),%rdi        # 34860 <_IO_stdin_used+0x7860>
   29ffa:	ff d0                	callq  *%rax
   29ffc:	48 89 05 7d 6a 03 00 	mov    %rax,0x36a7d(%rip)        # 60a80 <glad_glProgramUniformMatrix2x4fv>
   2a003:	48 8b 45 f8          	mov    -0x8(%rbp),%rax
   2a007:	48 8d 3d 92 a8 00 00 	lea    0xa892(%rip),%rdi        # 348a0 <_IO_stdin_used+0x78a0>
   2a00e:	ff d0                	callq  *%rax
   2a010:	48 89 05 e9 6c 03 00 	mov    %rax,0x36ce9(%rip)        # 60d00 <glad_glProgramUniformMatrix4x2fv>
   2a017:	48 8b 45 f8          	mov    -0x8(%rbp),%rax
   2a01b:	48 8d 3d be a8 00 00 	lea    0xa8be(%rip),%rdi        # 348e0 <_IO_stdin_used+0x78e0>
   2a022:	ff d0                	callq  *%rax
   2a024:	48 89 05 d5 6b 03 00 	mov    %rax,0x36bd5(%rip)        # 60c00 <glad_glProgramUniformMatrix3x4fv>
   2a02b:	48 8b 45 f8          	mov    -0x8(%rbp),%rax
   2a02f:	48 8d 3d ea a8 00 00 	lea    0xa8ea(%rip),%rdi        # 34920 <_IO_stdin_used+0x7920>
   2a036:	ff d0                	callq  *%rax
   2a038:	48 89 05 41 6d 03 00 	mov    %rax,0x36d41(%rip)        # 60d80 <glad_glProgramUniformMatrix4x3fv>
   2a03f:	48 8b 45 f8          	mov    -0x8(%rbp),%rax
   2a043:	48 8d 3d 16 a9 00 00 	lea    0xa916(%rip),%rdi        # 34960 <_IO_stdin_used+0x7960>
   2a04a:	ff d0                	callq  *%rax
   2a04c:	48 89 05 6d 69 03 00 	mov    %rax,0x3696d(%rip)        # 609c0 <glad_glProgramUniformMatrix2x3dv>
   2a053:	48 8b 45 f8          	mov    -0x8(%rbp),%rax
   2a057:	48 8d 3d 42 a9 00 00 	lea    0xa942(%rip),%rdi        # 349a0 <_IO_stdin_used+0x79a0>
   2a05e:	ff d0                	callq  *%rax
   2a060:	48 89 05 d9 6a 03 00 	mov    %rax,0x36ad9(%rip)        # 60b40 <glad_glProgramUniformMatrix3x2dv>
   2a067:	48 8b 45 f8          	mov    -0x8(%rbp),%rax
   2a06b:	48 8d 3d 6e a9 00 00 	lea    0xa96e(%rip),%rdi        # 349e0 <_IO_stdin_used+0x79e0>
   2a072:	ff d0                	callq  *%rax
   2a074:	48 89 05 c5 69 03 00 	mov    %rax,0x369c5(%rip)        # 60a40 <glad_glProgramUniformMatrix2x4dv>
   2a07b:	48 8b 45 f8          	mov    -0x8(%rbp),%rax
   2a07f:	48 8d 3d 9a a9 00 00 	lea    0xa99a(%rip),%rdi        # 34a20 <_IO_stdin_used+0x7a20>
   2a086:	ff d0                	callq  *%rax
   2a088:	48 89 05 31 6c 03 00 	mov    %rax,0x36c31(%rip)        # 60cc0 <glad_glProgramUniformMatrix4x2dv>
   2a08f:	48 8b 45 f8          	mov    -0x8(%rbp),%rax
   2a093:	48 8d 3d c6 a9 00 00 	lea    0xa9c6(%rip),%rdi        # 34a60 <_IO_stdin_used+0x7a60>
   2a09a:	ff d0                	callq  *%rax
   2a09c:	48 89 05 1d 6b 03 00 	mov    %rax,0x36b1d(%rip)        # 60bc0 <glad_glProgramUniformMatrix3x4dv>
   2a0a3:	48 8b 45 f8          	mov    -0x8(%rbp),%rax
   2a0a7:	48 8d 3d f2 a9 00 00 	lea    0xa9f2(%rip),%rdi        # 34aa0 <_IO_stdin_used+0x7aa0>
   2a0ae:	ff d0                	callq  *%rax
   2a0b0:	48 89 05 89 6c 03 00 	mov    %rax,0x36c89(%rip)        # 60d40 <glad_glProgramUniformMatrix4x3dv>
   2a0b7:	48 8b 45 f8          	mov    -0x8(%rbp),%rax
   2a0bb:	48 8d 3d 1e aa 00 00 	lea    0xaa1e(%rip),%rdi        # 34ae0 <_IO_stdin_used+0x7ae0>
   2a0c2:	ff d0                	callq  *%rax
   2a0c4:	48 89 05 f5 8f 03 00 	mov    %rax,0x38ff5(%rip)        # 630c0 <glad_glValidateProgramPipeline>
   2a0cb:	48 8b 45 f8          	mov    -0x8(%rbp),%rax
   2a0cf:	48 8d 3d 4a aa 00 00 	lea    0xaa4a(%rip),%rdi        # 34b20 <_IO_stdin_used+0x7b20>
   2a0d6:	ff d0                	callq  *%rax
   2a0d8:	48 89 05 e1 36 03 00 	mov    %rax,0x336e1(%rip)        # 5d7c0 <glad_glGetProgramPipelineInfoLog>
   2a0df:	48 8b 45 f8          	mov    -0x8(%rbp),%rax
   2a0e3:	48 8d 3d 76 aa 00 00 	lea    0xaa76(%rip),%rdi        # 34b60 <_IO_stdin_used+0x7b60>
   2a0ea:	ff d0                	callq  *%rax
   2a0ec:	48 89 05 4d a1 03 00 	mov    %rax,0x3a14d(%rip)        # 64240 <glad_glVertexAttribL1d>
   2a0f3:	48 8b 45 f8          	mov    -0x8(%rbp),%rax
   2a0f7:	48 8d 3d a2 aa 00 00 	lea    0xaaa2(%rip),%rdi        # 34ba0 <_IO_stdin_used+0x7ba0>
   2a0fe:	ff d0                	callq  *%rax
   2a100:	48 89 05 b9 a1 03 00 	mov    %rax,0x3a1b9(%rip)        # 642c0 <glad_glVertexAttribL2d>
   2a107:	48 8b 45 f8          	mov    -0x8(%rbp),%rax
   2a10b:	48 8d 3d ce aa 00 00 	lea    0xaace(%rip),%rdi        # 34be0 <_IO_stdin_used+0x7be0>
   2a112:	ff d0                	callq  *%rax
   2a114:	48 89 05 25 a2 03 00 	mov    %rax,0x3a225(%rip)        # 64340 <glad_glVertexAttribL3d>
   2a11b:	48 8b 45 f8          	mov    -0x8(%rbp),%rax
   2a11f:	48 8d 3d fa aa 00 00 	lea    0xaafa(%rip),%rdi        # 34c20 <_IO_stdin_used+0x7c20>
   2a126:	ff d0                	callq  *%rax
   2a128:	48 89 05 91 a2 03 00 	mov    %rax,0x3a291(%rip)        # 643c0 <glad_glVertexAttribL4d>
   2a12f:	48 8b 45 f8          	mov    -0x8(%rbp),%rax
   2a133:	48 8d 3d 26 ab 00 00 	lea    0xab26(%rip),%rdi        # 34c60 <_IO_stdin_used+0x7c60>
   2a13a:	ff d0                	callq  *%rax
   2a13c:	48 89 05 3d a1 03 00 	mov    %rax,0x3a13d(%rip)        # 64280 <glad_glVertexAttribL1dv>
   2a143:	48 8b 45 f8          	mov    -0x8(%rbp),%rax
   2a147:	48 8d 3d 52 ab 00 00 	lea    0xab52(%rip),%rdi        # 34ca0 <_IO_stdin_used+0x7ca0>
   2a14e:	ff d0                	callq  *%rax
   2a150:	48 89 05 a9 a1 03 00 	mov    %rax,0x3a1a9(%rip)        # 64300 <glad_glVertexAttribL2dv>
   2a157:	48 8b 45 f8          	mov    -0x8(%rbp),%rax
   2a15b:	48 8d 3d 7e ab 00 00 	lea    0xab7e(%rip),%rdi        # 34ce0 <_IO_stdin_used+0x7ce0>
   2a162:	ff d0                	callq  *%rax
   2a164:	48 89 05 15 a2 03 00 	mov    %rax,0x3a215(%rip)        # 64380 <glad_glVertexAttribL3dv>
   2a16b:	48 8b 45 f8          	mov    -0x8(%rbp),%rax
   2a16f:	48 8d 3d aa ab 00 00 	lea    0xabaa(%rip),%rdi        # 34d20 <_IO_stdin_used+0x7d20>
   2a176:	ff d0                	callq  *%rax
   2a178:	48 89 05 81 a2 03 00 	mov    %rax,0x3a281(%rip)        # 64400 <glad_glVertexAttribL4dv>
   2a17f:	48 8b 45 f8          	mov    -0x8(%rbp),%rax
   2a183:	48 8d 3d d6 ab 00 00 	lea    0xabd6(%rip),%rdi        # 34d60 <_IO_stdin_used+0x7d60>
   2a18a:	ff d0                	callq  *%rax
   2a18c:	48 89 05 ed a2 03 00 	mov    %rax,0x3a2ed(%rip)        # 64480 <glad_glVertexAttribLPointer>
   2a193:	48 8b 45 f8          	mov    -0x8(%rbp),%rax
   2a197:	48 8d 3d 02 ac 00 00 	lea    0xac02(%rip),%rdi        # 34da0 <_IO_stdin_used+0x7da0>
   2a19e:	ff d0                	callq  *%rax
   2a1a0:	48 89 05 59 46 03 00 	mov    %rax,0x34659(%rip)        # 5e800 <glad_glGetVertexAttribLdv>
   2a1a7:	48 8b 45 f8          	mov    -0x8(%rbp),%rax
   2a1ab:	48 8d 3d 2e ac 00 00 	lea    0xac2e(%rip),%rdi        # 34de0 <_IO_stdin_used+0x7de0>
   2a1b2:	ff d0                	callq  *%rax
   2a1b4:	48 89 05 45 a7 03 00 	mov    %rax,0x3a745(%rip)        # 64900 <glad_glViewportArrayv>
   2a1bb:	48 8b 45 f8          	mov    -0x8(%rbp),%rax
   2a1bf:	48 8d 3d 5a ac 00 00 	lea    0xac5a(%rip),%rdi        # 34e20 <_IO_stdin_used+0x7e20>
   2a1c6:	ff d0                	callq  *%rax
   2a1c8:	48 89 05 71 a7 03 00 	mov    %rax,0x3a771(%rip)        # 64940 <glad_glViewportIndexedf>
   2a1cf:	48 8b 45 f8          	mov    -0x8(%rbp),%rax
   2a1d3:	48 8d 3d 86 ac 00 00 	lea    0xac86(%rip),%rdi        # 34e60 <_IO_stdin_used+0x7e60>
   2a1da:	ff d0                	callq  *%rax
   2a1dc:	48 89 05 9d a7 03 00 	mov    %rax,0x3a79d(%rip)        # 64980 <glad_glViewportIndexedfv>
   2a1e3:	48 8b 45 f8          	mov    -0x8(%rbp),%rax
   2a1e7:	48 8d 3d b2 ac 00 00 	lea    0xacb2(%rip),%rdi        # 34ea0 <_IO_stdin_used+0x7ea0>
   2a1ee:	ff d0                	callq  *%rax
   2a1f0:	48 89 05 89 70 03 00 	mov    %rax,0x37089(%rip)        # 61280 <glad_glScissorArrayv>
   2a1f7:	48 8b 45 f8          	mov    -0x8(%rbp),%rax
   2a1fb:	48 8d 3d de ac 00 00 	lea    0xacde(%rip),%rdi        # 34ee0 <_IO_stdin_used+0x7ee0>
   2a202:	ff d0                	callq  *%rax
   2a204:	48 89 05 b5 70 03 00 	mov    %rax,0x370b5(%rip)        # 612c0 <glad_glScissorIndexed>
   2a20b:	48 8b 45 f8          	mov    -0x8(%rbp),%rax
   2a20f:	48 8d 3d 0a ad 00 00 	lea    0xad0a(%rip),%rdi        # 34f20 <_IO_stdin_used+0x7f20>
   2a216:	ff d0                	callq  *%rax
   2a218:	48 89 05 e1 70 03 00 	mov    %rax,0x370e1(%rip)        # 61300 <glad_glScissorIndexedv>
   2a21f:	48 8b 45 f8          	mov    -0x8(%rbp),%rax
   2a223:	48 8d 3d 36 ad 00 00 	lea    0xad36(%rip),%rdi        # 34f60 <_IO_stdin_used+0x7f60>
   2a22a:	ff d0                	callq  *%rax
   2a22c:	48 89 05 4d 19 03 00 	mov    %rax,0x3194d(%rip)        # 5bb80 <glad_glDepthRangeArrayv>
   2a233:	48 8b 45 f8          	mov    -0x8(%rbp),%rax
   2a237:	48 8d 3d 62 ad 00 00 	lea    0xad62(%rip),%rdi        # 34fa0 <_IO_stdin_used+0x7fa0>
   2a23e:	ff d0                	callq  *%rax
   2a240:	48 89 05 79 19 03 00 	mov    %rax,0x31979(%rip)        # 5bbc0 <glad_glDepthRangeIndexed>
   2a247:	48 8b 45 f8          	mov    -0x8(%rbp),%rax
   2a24b:	48 8d 3d 8e ad 00 00 	lea    0xad8e(%rip),%rdi        # 34fe0 <_IO_stdin_used+0x7fe0>
   2a252:	ff d0                	callq  *%rax
   2a254:	48 89 05 a5 2e 03 00 	mov    %rax,0x32ea5(%rip)        # 5d100 <glad_glGetFloati_v>
   2a25b:	48 8b 45 f8          	mov    -0x8(%rbp),%rax
   2a25f:	48 8d 3d ba ad 00 00 	lea    0xadba(%rip),%rdi        # 35020 <_IO_stdin_used+0x8020>
   2a266:	ff d0                	callq  *%rax
   2a268:	48 89 05 d1 2d 03 00 	mov    %rax,0x32dd1(%rip)        # 5d040 <glad_glGetDoublei_v>
   2a26f:	eb 01                	jmp    2a272 <_ZL19load_GL_VERSION_4_1PFPvPKcE+0x711>
   2a271:	90                   	nop
   2a272:	c9                   	leaveq 
   2a273:	c3                   	retq   

000000000002a274 <_ZL19load_GL_VERSION_4_2PFPvPKcE>:
   2a274:	55                   	push   %rbp
   2a275:	48 89 e5             	mov    %rsp,%rbp
   2a278:	48 83 ec 10          	sub    $0x10,%rsp
   2a27c:	48 89 7d f8          	mov    %rdi,-0x8(%rbp)
   2a280:	8b 05 ba f8 02 00    	mov    0x2f8ba(%rip),%eax        # 59b40 <GLAD_GL_VERSION_4_2>
   2a286:	85 c0                	test   %eax,%eax
   2a288:	0f 84 f2 00 00 00    	je     2a380 <_ZL19load_GL_VERSION_4_2PFPvPKcE+0x10c>
   2a28e:	48 8b 45 f8          	mov    -0x8(%rbp),%rax
   2a292:	48 8d 3d c7 ad 00 00 	lea    0xadc7(%rip),%rdi        # 35060 <_IO_stdin_used+0x8060>
   2a299:	ff d0                	callq  *%rax
   2a29b:	48 89 05 1e 1c 03 00 	mov    %rax,0x31c1e(%rip)        # 5bec0 <glad_glDrawArraysInstancedBaseInstance>
   2a2a2:	48 8b 45 f8          	mov    -0x8(%rbp),%rax
   2a2a6:	48 8d 3d 13 ae 00 00 	lea    0xae13(%rip),%rdi        # 350c0 <_IO_stdin_used+0x80c0>
   2a2ad:	ff d0                	callq  *%rax
   2a2af:	48 89 05 ca 1d 03 00 	mov    %rax,0x31dca(%rip)        # 5c080 <glad_glDrawElementsInstancedBaseInstance>
   2a2b6:	48 8b 45 f8          	mov    -0x8(%rbp),%rax
   2a2ba:	48 8d 3d 5f ae 00 00 	lea    0xae5f(%rip),%rdi        # 35120 <_IO_stdin_used+0x8120>
   2a2c1:	ff d0                	callq  *%rax
   2a2c3:	48 89 05 36 1e 03 00 	mov    %rax,0x31e36(%rip)        # 5c100 <glad_glDrawElementsInstancedBaseVertexBaseInstance>
   2a2ca:	48 8b 45 f8          	mov    -0x8(%rbp),%rax
   2a2ce:	48 8d 3d ab ae 00 00 	lea    0xaeab(%rip),%rdi        # 35180 <_IO_stdin_used+0x8180>
   2a2d5:	ff d0                	callq  *%rax
   2a2d7:	48 89 05 22 31 03 00 	mov    %rax,0x33122(%rip)        # 5d400 <glad_glGetInternalformativ>
   2a2de:	48 8b 45 f8          	mov    -0x8(%rbp),%rax
   2a2e2:	48 8d 3d d7 ae 00 00 	lea    0xaed7(%rip),%rdi        # 351c0 <_IO_stdin_used+0x81c0>
   2a2e9:	ff d0                	callq  *%rax
   2a2eb:	48 89 05 ce 27 03 00 	mov    %rax,0x327ce(%rip)        # 5cac0 <glad_glGetActiveAtomicCounterBufferiv>
   2a2f2:	48 8b 45 f8          	mov    -0x8(%rbp),%rax
   2a2f6:	48 8d 3d 23 af 00 00 	lea    0xaf23(%rip),%rdi        # 35220 <_IO_stdin_used+0x8220>
   2a2fd:	ff d0                	callq  *%rax
   2a2ff:	48 89 05 3a fd 02 00 	mov    %rax,0x2fd3a(%rip)        # 5a040 <glad_glBindImageTexture>
   2a306:	48 8b 45 f8          	mov    -0x8(%rbp),%rax
   2a30a:	48 8d 3d 4f af 00 00 	lea    0xaf4f(%rip),%rdi        # 35260 <_IO_stdin_used+0x8260>
   2a311:	ff d0                	callq  *%rax
   2a313:	48 89 05 26 52 03 00 	mov    %rax,0x35226(%rip)        # 5f540 <glad_glMemoryBarrier>
   2a31a:	48 8b 45 f8          	mov    -0x8(%rbp),%rax
   2a31e:	48 8d 3d 7b af 00 00 	lea    0xaf7b(%rip),%rdi        # 352a0 <_IO_stdin_used+0x82a0>
   2a325:	ff d0                	callq  *%rax
   2a327:	48 89 05 12 78 03 00 	mov    %rax,0x37812(%rip)        # 61b40 <glad_glTexStorage1D>
   2a32e:	48 8b 45 f8          	mov    -0x8(%rbp),%rax
   2a332:	48 8d 3d a7 af 00 00 	lea    0xafa7(%rip),%rdi        # 352e0 <_IO_stdin_used+0x82e0>
   2a339:	ff d0                	callq  *%rax
   2a33b:	48 89 05 3e 78 03 00 	mov    %rax,0x3783e(%rip)        # 61b80 <glad_glTexStorage2D>
   2a342:	48 8b 45 f8          	mov    -0x8(%rbp),%rax
   2a346:	48 8d 3d d3 af 00 00 	lea    0xafd3(%rip),%rdi        # 35320 <_IO_stdin_used+0x8320>
   2a34d:	ff d0                	callq  *%rax
   2a34f:	48 89 05 aa 78 03 00 	mov    %rax,0x378aa(%rip)        # 61c00 <glad_glTexStorage3D>
   2a356:	48 8b 45 f8          	mov    -0x8(%rbp),%rax
   2a35a:	48 8d 3d ff af 00 00 	lea    0xafff(%rip),%rdi        # 35360 <_IO_stdin_used+0x8360>
   2a361:	ff d0                	callq  *%rax
   2a363:	48 89 05 96 1e 03 00 	mov    %rax,0x31e96(%rip)        # 5c200 <glad_glDrawTransformFeedbackInstanced>
   2a36a:	48 8b 45 f8          	mov    -0x8(%rbp),%rax
   2a36e:	48 8d 3d 4b b0 00 00 	lea    0xb04b(%rip),%rdi        # 353c0 <_IO_stdin_used+0x83c0>
   2a375:	ff d0                	callq  *%rax
   2a377:	48 89 05 02 1f 03 00 	mov    %rax,0x31f02(%rip)        # 5c280 <glad_glDrawTransformFeedbackStreamInstanced>
   2a37e:	eb 01                	jmp    2a381 <_ZL19load_GL_VERSION_4_2PFPvPKcE+0x10d>
   2a380:	90                   	nop
   2a381:	c9                   	leaveq 
   2a382:	c3                   	retq   

000000000002a383 <_ZL19load_GL_VERSION_4_3PFPvPKcE>:
   2a383:	55                   	push   %rbp
   2a384:	48 89 e5             	mov    %rsp,%rbp
   2a387:	48 83 ec 10          	sub    $0x10,%rsp
   2a38b:	48 89 7d f8          	mov    %rdi,-0x8(%rbp)
   2a38f:	8b 05 eb f7 02 00    	mov    0x2f7eb(%rip),%eax        # 59b80 <GLAD_GL_VERSION_4_3>
   2a395:	85 c0                	test   %eax,%eax
   2a397:	0f 84 72 03 00 00    	je     2a70f <_ZL19load_GL_VERSION_4_3PFPvPKcE+0x38c>
   2a39d:	48 8b 45 f8          	mov    -0x8(%rbp),%rax
   2a3a1:	48 8d 3d 78 b0 00 00 	lea    0xb078(%rip),%rdi        # 35420 <_IO_stdin_used+0x8420>
   2a3a8:	ff d0                	callq  *%rax
   2a3aa:	48 89 05 4f 04 03 00 	mov    %rax,0x3044f(%rip)        # 5a800 <glad_glClearBufferData>
   2a3b1:	48 8b 45 f8          	mov    -0x8(%rbp),%rax
   2a3b5:	48 8d 3d a4 b0 00 00 	lea    0xb0a4(%rip),%rdi        # 35460 <_IO_stdin_used+0x8460>
   2a3bc:	ff d0                	callq  *%rax
   2a3be:	48 89 05 7b 04 03 00 	mov    %rax,0x3047b(%rip)        # 5a840 <glad_glClearBufferSubData>
   2a3c5:	48 8b 45 f8          	mov    -0x8(%rbp),%rax
   2a3c9:	48 8d 3d d0 b0 00 00 	lea    0xb0d0(%rip),%rdi        # 354a0 <_IO_stdin_used+0x84a0>
   2a3d0:	ff d0                	callq  *%rax
   2a3d2:	48 89 05 a7 19 03 00 	mov    %rax,0x319a7(%rip)        # 5bd80 <glad_glDispatchCompute>
   2a3d9:	48 8b 45 f8          	mov    -0x8(%rbp),%rax
   2a3dd:	48 8d 3d fc b0 00 00 	lea    0xb0fc(%rip),%rdi        # 354e0 <_IO_stdin_used+0x84e0>
   2a3e4:	ff d0                	callq  *%rax
   2a3e6:	48 89 05 d3 19 03 00 	mov    %rax,0x319d3(%rip)        # 5bdc0 <glad_glDispatchComputeIndirect>
   2a3ed:	48 8b 45 f8          	mov    -0x8(%rbp),%rax
   2a3f1:	48 8d 3d 28 b1 00 00 	lea    0xb128(%rip),%rdi        # 35520 <_IO_stdin_used+0x8520>
   2a3f8:	ff d0                	callq  *%rax
   2a3fa:	48 89 05 3f 0d 03 00 	mov    %rax,0x30d3f(%rip)        # 5b140 <glad_glCopyImageSubData>
   2a401:	48 8b 45 f8          	mov    -0x8(%rbp),%rax
   2a405:	48 8d 3d 54 b1 00 00 	lea    0xb154(%rip),%rdi        # 35560 <_IO_stdin_used+0x8560>
   2a40c:	ff d0                	callq  *%rax
   2a40e:	48 89 05 eb 21 03 00 	mov    %rax,0x321eb(%rip)        # 5c600 <glad_glFramebufferParameteri>
   2a415:	48 8b 45 f8          	mov    -0x8(%rbp),%rax
   2a419:	48 8d 3d 80 b1 00 00 	lea    0xb180(%rip),%rdi        # 355a0 <_IO_stdin_used+0x85a0>
   2a420:	ff d0                	callq  *%rax
   2a422:	48 89 05 17 2e 03 00 	mov    %rax,0x32e17(%rip)        # 5d240 <glad_glGetFramebufferParameteriv>
   2a429:	48 8b 45 f8          	mov    -0x8(%rbp),%rax
   2a42d:	48 8d 3d ac b1 00 00 	lea    0xb1ac(%rip),%rdi        # 355e0 <_IO_stdin_used+0x85e0>
   2a434:	ff d0                	callq  *%rax
   2a436:	48 89 05 83 2f 03 00 	mov    %rax,0x32f83(%rip)        # 5d3c0 <glad_glGetInternalformati64v>
   2a43d:	48 8b 45 f8          	mov    -0x8(%rbp),%rax
   2a441:	48 8d 3d d8 b1 00 00 	lea    0xb1d8(%rip),%rdi        # 35620 <_IO_stdin_used+0x8620>
   2a448:	ff d0                	callq  *%rax
   2a44a:	48 89 05 6f 4b 03 00 	mov    %rax,0x34b6f(%rip)        # 5efc0 <glad_glInvalidateTexSubImage>
   2a451:	48 8b 45 f8          	mov    -0x8(%rbp),%rax
   2a455:	48 8d 3d 04 b2 00 00 	lea    0xb204(%rip),%rdi        # 35660 <_IO_stdin_used+0x8660>
   2a45c:	ff d0                	callq  *%rax
   2a45e:	48 89 05 1b 4b 03 00 	mov    %rax,0x34b1b(%rip)        # 5ef80 <glad_glInvalidateTexImage>
   2a465:	48 8b 45 f8          	mov    -0x8(%rbp),%rax
   2a469:	48 8d 3d 30 b2 00 00 	lea    0xb230(%rip),%rdi        # 356a0 <_IO_stdin_used+0x86a0>
   2a470:	ff d0                	callq  *%rax
   2a472:	48 89 05 c7 49 03 00 	mov    %rax,0x349c7(%rip)        # 5ee40 <glad_glInvalidateBufferSubData>
   2a479:	48 8b 45 f8          	mov    -0x8(%rbp),%rax
   2a47d:	48 8d 3d 5c b2 00 00 	lea    0xb25c(%rip),%rdi        # 356e0 <_IO_stdin_used+0x86e0>
   2a484:	ff d0                	callq  *%rax
   2a486:	48 89 05 73 49 03 00 	mov    %rax,0x34973(%rip)        # 5ee00 <glad_glInvalidateBufferData>
   2a48d:	48 8b 45 f8          	mov    -0x8(%rbp),%rax
   2a491:	48 8d 3d 88 b2 00 00 	lea    0xb288(%rip),%rdi        # 35720 <_IO_stdin_used+0x8720>
   2a498:	ff d0                	callq  *%rax
   2a49a:	48 89 05 df 49 03 00 	mov    %rax,0x349df(%rip)        # 5ee80 <glad_glInvalidateFramebuffer>
   2a4a1:	48 8b 45 f8          	mov    -0x8(%rbp),%rax
   2a4a5:	48 8d 3d b4 b2 00 00 	lea    0xb2b4(%rip),%rdi        # 35760 <_IO_stdin_used+0x8760>
   2a4ac:	ff d0                	callq  *%rax
   2a4ae:	48 89 05 8b 4a 03 00 	mov    %rax,0x34a8b(%rip)        # 5ef40 <glad_glInvalidateSubFramebuffer>
   2a4b5:	48 8b 45 f8          	mov    -0x8(%rbp),%rax
   2a4b9:	48 8d 3d e0 b2 00 00 	lea    0xb2e0(%rip),%rdi        # 357a0 <_IO_stdin_used+0x87a0>
   2a4c0:	ff d0                	callq  *%rax
   2a4c2:	48 89 05 77 51 03 00 	mov    %rax,0x35177(%rip)        # 5f640 <glad_glMultiDrawArraysIndirect>
   2a4c9:	48 8b 45 f8          	mov    -0x8(%rbp),%rax
   2a4cd:	48 8d 3d 0c b3 00 00 	lea    0xb30c(%rip),%rdi        # 357e0 <_IO_stdin_used+0x87e0>
   2a4d4:	ff d0                	callq  *%rax
   2a4d6:	48 89 05 23 52 03 00 	mov    %rax,0x35223(%rip)        # 5f700 <glad_glMultiDrawElementsIndirect>
   2a4dd:	48 8b 45 f8          	mov    -0x8(%rbp),%rax
   2a4e1:	48 8d 3d 38 b3 00 00 	lea    0xb338(%rip),%rdi        # 35820 <_IO_stdin_used+0x8820>
   2a4e8:	ff d0                	callq  *%rax
   2a4ea:	48 89 05 8f 32 03 00 	mov    %rax,0x3328f(%rip)        # 5d780 <glad_glGetProgramInterfaceiv>
   2a4f1:	48 8b 45 f8          	mov    -0x8(%rbp),%rax
   2a4f5:	48 8d 3d 64 b3 00 00 	lea    0xb364(%rip),%rdi        # 35860 <_IO_stdin_used+0x8860>
   2a4fc:	ff d0                	callq  *%rax
   2a4fe:	48 89 05 3b 33 03 00 	mov    %rax,0x3333b(%rip)        # 5d840 <glad_glGetProgramResourceIndex>
   2a505:	48 8b 45 f8          	mov    -0x8(%rbp),%rax
   2a509:	48 8d 3d 90 b3 00 00 	lea    0xb390(%rip),%rdi        # 358a0 <_IO_stdin_used+0x88a0>
   2a510:	ff d0                	callq  *%rax
   2a512:	48 89 05 e7 33 03 00 	mov    %rax,0x333e7(%rip)        # 5d900 <glad_glGetProgramResourceName>
   2a519:	48 8b 45 f8          	mov    -0x8(%rbp),%rax
   2a51d:	48 8d 3d bc b3 00 00 	lea    0xb3bc(%rip),%rdi        # 358e0 <_IO_stdin_used+0x88e0>
   2a524:	ff d0                	callq  *%rax
   2a526:	48 89 05 13 34 03 00 	mov    %rax,0x33413(%rip)        # 5d940 <glad_glGetProgramResourceiv>
   2a52d:	48 8b 45 f8          	mov    -0x8(%rbp),%rax
   2a531:	48 8d 3d e8 b3 00 00 	lea    0xb3e8(%rip),%rdi        # 35920 <_IO_stdin_used+0x8920>
   2a538:	ff d0                	callq  *%rax
   2a53a:	48 89 05 3f 33 03 00 	mov    %rax,0x3333f(%rip)        # 5d880 <glad_glGetProgramResourceLocation>
   2a541:	48 8b 45 f8          	mov    -0x8(%rbp),%rax
   2a545:	48 8d 3d 14 b4 00 00 	lea    0xb414(%rip),%rdi        # 35960 <_IO_stdin_used+0x8960>
   2a54c:	ff d0                	callq  *%rax
   2a54e:	48 89 05 6b 33 03 00 	mov    %rax,0x3336b(%rip)        # 5d8c0 <glad_glGetProgramResourceLocationIndex>
   2a555:	48 8b 45 f8          	mov    -0x8(%rbp),%rax
   2a559:	48 8d 3d 60 b4 00 00 	lea    0xb460(%rip),%rdi        # 359c0 <_IO_stdin_used+0x89c0>
   2a560:	ff d0                	callq  *%rax
   2a562:	48 89 05 d7 6e 03 00 	mov    %rax,0x36ed7(%rip)        # 61440 <glad_glShaderStorageBlockBinding>
   2a569:	48 8b 45 f8          	mov    -0x8(%rbp),%rax
   2a56d:	48 8d 3d 8c b4 00 00 	lea    0xb48c(%rip),%rdi        # 35a00 <_IO_stdin_used+0x8a00>
   2a574:	ff d0                	callq  *%rax
   2a576:	48 89 05 c3 70 03 00 	mov    %rax,0x370c3(%rip)        # 61640 <glad_glTexBufferRange>
   2a57d:	48 8b 45 f8          	mov    -0x8(%rbp),%rax
   2a581:	48 8d 3d b8 b4 00 00 	lea    0xb4b8(%rip),%rdi        # 35a40 <_IO_stdin_used+0x8a40>
   2a588:	ff d0                	callq  *%rax
   2a58a:	48 89 05 2f 76 03 00 	mov    %rax,0x3762f(%rip)        # 61bc0 <glad_glTexStorage2DMultisample>
   2a591:	48 8b 45 f8          	mov    -0x8(%rbp),%rax
   2a595:	48 8d 3d e4 b4 00 00 	lea    0xb4e4(%rip),%rdi        # 35a80 <_IO_stdin_used+0x8a80>
   2a59c:	ff d0                	callq  *%rax
   2a59e:	48 89 05 9b 76 03 00 	mov    %rax,0x3769b(%rip)        # 61c40 <glad_glTexStorage3DMultisample>
   2a5a5:	48 8b 45 f8          	mov    -0x8(%rbp),%rax
   2a5a9:	48 8d 3d 10 b5 00 00 	lea    0xb510(%rip),%rdi        # 35ac0 <_IO_stdin_used+0x8ac0>
   2a5b0:	ff d0                	callq  *%rax
   2a5b2:	48 89 05 c7 7b 03 00 	mov    %rax,0x37bc7(%rip)        # 62180 <glad_glTextureView>
   2a5b9:	48 8b 45 f8          	mov    -0x8(%rbp),%rax
   2a5bd:	48 8d 3d 3c b5 00 00 	lea    0xb53c(%rip),%rdi        # 35b00 <_IO_stdin_used+0x8b00>
   2a5c4:	ff d0                	callq  *%rax
   2a5c6:	48 89 05 33 fd 02 00 	mov    %rax,0x2fd33(%rip)        # 5a300 <glad_glBindVertexBuffer>
   2a5cd:	48 8b 45 f8          	mov    -0x8(%rbp),%rax
   2a5d1:	48 8d 3d 68 b5 00 00 	lea    0xb568(%rip),%rdi        # 35b40 <_IO_stdin_used+0x8b40>
   2a5d8:	ff d0                	callq  *%rax
   2a5da:	48 89 05 9f 96 03 00 	mov    %rax,0x3969f(%rip)        # 63c80 <glad_glVertexAttribFormat>
   2a5e1:	48 8b 45 f8          	mov    -0x8(%rbp),%rax
   2a5e5:	48 8d 3d 94 b5 00 00 	lea    0xb594(%rip),%rdi        # 35b80 <_IO_stdin_used+0x8b80>
   2a5ec:	ff d0                	callq  *%rax
   2a5ee:	48 89 05 cb 9b 03 00 	mov    %rax,0x39bcb(%rip)        # 641c0 <glad_glVertexAttribIFormat>
   2a5f5:	48 8b 45 f8          	mov    -0x8(%rbp),%rax
   2a5f9:	48 8d 3d c0 b5 00 00 	lea    0xb5c0(%rip),%rdi        # 35bc0 <_IO_stdin_used+0x8bc0>
   2a600:	ff d0                	callq  *%rax
   2a602:	48 89 05 37 9e 03 00 	mov    %rax,0x39e37(%rip)        # 64440 <glad_glVertexAttribLFormat>
   2a609:	48 8b 45 f8          	mov    -0x8(%rbp),%rax
   2a60d:	48 8d 3d ec b5 00 00 	lea    0xb5ec(%rip),%rdi        # 35c00 <_IO_stdin_used+0x8c00>
   2a614:	ff d0                	callq  *%rax
   2a616:	48 89 05 e3 95 03 00 	mov    %rax,0x395e3(%rip)        # 63c00 <glad_glVertexAttribBinding>
   2a61d:	48 8b 45 f8          	mov    -0x8(%rbp),%rax
   2a621:	48 8d 3d 18 b6 00 00 	lea    0xb618(%rip),%rdi        # 35c40 <_IO_stdin_used+0x8c40>
   2a628:	ff d0                	callq  *%rax
   2a62a:	48 89 05 cf a0 03 00 	mov    %rax,0x3a0cf(%rip)        # 64700 <glad_glVertexBindingDivisor>
   2a631:	48 8b 45 f8          	mov    -0x8(%rbp),%rax
   2a635:	48 8d 3d 44 b6 00 00 	lea    0xb644(%rip),%rdi        # 35c80 <_IO_stdin_used+0x8c80>
   2a63c:	ff d0                	callq  *%rax
   2a63e:	48 89 05 fb 10 03 00 	mov    %rax,0x310fb(%rip)        # 5b740 <glad_glDebugMessageControl>
   2a645:	48 8b 45 f8          	mov    -0x8(%rbp),%rax
   2a649:	48 8d 3d 70 b6 00 00 	lea    0xb670(%rip),%rdi        # 35cc0 <_IO_stdin_used+0x8cc0>
   2a650:	ff d0                	callq  *%rax
   2a652:	48 89 05 27 11 03 00 	mov    %rax,0x31127(%rip)        # 5b780 <glad_glDebugMessageInsert>
   2a659:	48 8b 45 f8          	mov    -0x8(%rbp),%rax
   2a65d:	48 8d 3d 9c b6 00 00 	lea    0xb69c(%rip),%rdi        # 35d00 <_IO_stdin_used+0x8d00>
   2a664:	ff d0                	callq  *%rax
   2a666:	48 89 05 93 10 03 00 	mov    %rax,0x31093(%rip)        # 5b700 <glad_glDebugMessageCallback>
   2a66d:	48 8b 45 f8          	mov    -0x8(%rbp),%rax
   2a671:	48 8d 3d c8 b6 00 00 	lea    0xb6c8(%rip),%rdi        # 35d40 <_IO_stdin_used+0x8d40>
   2a678:	ff d0                	callq  *%rax
   2a67a:	48 89 05 7f 29 03 00 	mov    %rax,0x3297f(%rip)        # 5d000 <glad_glGetDebugMessageLog>
   2a681:	48 8b 45 f8          	mov    -0x8(%rbp),%rax
   2a685:	48 8d 3d f4 b6 00 00 	lea    0xb6f4(%rip),%rdi        # 35d80 <_IO_stdin_used+0x8d80>
   2a68c:	ff d0                	callq  *%rax
   2a68e:	48 89 05 6b 67 03 00 	mov    %rax,0x3676b(%rip)        # 60e00 <glad_glPushDebugGroup>
   2a695:	48 8b 45 f8          	mov    -0x8(%rbp),%rax
   2a699:	48 8d 3d 20 b7 00 00 	lea    0xb720(%rip),%rdi        # 35dc0 <_IO_stdin_used+0x8dc0>
   2a6a0:	ff d0                	callq  *%rax
   2a6a2:	48 89 05 97 59 03 00 	mov    %rax,0x35997(%rip)        # 60040 <glad_glPopDebugGroup>
   2a6a9:	48 8b 45 f8          	mov    -0x8(%rbp),%rax
   2a6ad:	48 8d 3d 4c b7 00 00 	lea    0xb74c(%rip),%rdi        # 35e00 <_IO_stdin_used+0x8e00>
   2a6b4:	ff d0                	callq  *%rax
   2a6b6:	48 89 05 03 56 03 00 	mov    %rax,0x35603(%rip)        # 5fcc0 <glad_glObjectLabel>
   2a6bd:	48 8b 45 f8          	mov    -0x8(%rbp),%rax
   2a6c1:	48 8d 3d 78 b7 00 00 	lea    0xb778(%rip),%rdi        # 35e40 <_IO_stdin_used+0x8e40>
   2a6c8:	ff d0                	callq  *%rax
   2a6ca:	48 89 05 6f 2f 03 00 	mov    %rax,0x32f6f(%rip)        # 5d640 <glad_glGetObjectLabel>
   2a6d1:	48 8b 45 f8          	mov    -0x8(%rbp),%rax
   2a6d5:	48 8d 3d a4 b7 00 00 	lea    0xb7a4(%rip),%rdi        # 35e80 <_IO_stdin_used+0x8e80>
   2a6dc:	ff d0                	callq  *%rax
   2a6de:	48 89 05 1b 56 03 00 	mov    %rax,0x3561b(%rip)        # 5fd00 <glad_glObjectPtrLabel>
   2a6e5:	48 8b 45 f8          	mov    -0x8(%rbp),%rax
   2a6e9:	48 8d 3d d0 b7 00 00 	lea    0xb7d0(%rip),%rdi        # 35ec0 <_IO_stdin_used+0x8ec0>
   2a6f0:	ff d0                	callq  *%rax
   2a6f2:	48 89 05 87 2f 03 00 	mov    %rax,0x32f87(%rip)        # 5d680 <glad_glGetObjectPtrLabel>
   2a6f9:	48 8b 45 f8          	mov    -0x8(%rbp),%rax
   2a6fd:	48 8d 3d fc b7 00 00 	lea    0xb7fc(%rip),%rdi        # 35f00 <_IO_stdin_used+0x8f00>
   2a704:	ff d0                	callq  *%rax
   2a706:	48 89 05 b3 2f 03 00 	mov    %rax,0x32fb3(%rip)        # 5d6c0 <glad_glGetPointerv>
   2a70d:	eb 01                	jmp    2a710 <_ZL19load_GL_VERSION_4_3PFPvPKcE+0x38d>
   2a70f:	90                   	nop
   2a710:	c9                   	leaveq 
   2a711:	c3                   	retq   

000000000002a712 <_ZL19load_GL_VERSION_4_4PFPvPKcE>:
   2a712:	55                   	push   %rbp
   2a713:	48 89 e5             	mov    %rsp,%rbp
   2a716:	48 83 ec 10          	sub    $0x10,%rsp
   2a71a:	48 89 7d f8          	mov    %rdi,-0x8(%rbp)
   2a71e:	8b 05 9c f4 02 00    	mov    0x2f49c(%rip),%eax        # 59bc0 <GLAD_GL_VERSION_4_4>
   2a724:	85 c0                	test   %eax,%eax
   2a726:	0f 84 b6 00 00 00    	je     2a7e2 <_ZL19load_GL_VERSION_4_4PFPvPKcE+0xd0>
   2a72c:	48 8b 45 f8          	mov    -0x8(%rbp),%rax
   2a730:	48 8d 3d 09 b8 00 00 	lea    0xb809(%rip),%rdi        # 35f40 <_IO_stdin_used+0x8f40>
   2a737:	ff d0                	callq  *%rax
   2a739:	48 89 05 40 ff 02 00 	mov    %rax,0x2ff40(%rip)        # 5a680 <glad_glBufferStorage>
   2a740:	48 8b 45 f8          	mov    -0x8(%rbp),%rax
   2a744:	48 8d 3d 35 b8 00 00 	lea    0xb835(%rip),%rdi        # 35f80 <_IO_stdin_used+0x8f80>
   2a74b:	ff d0                	callq  *%rax
   2a74d:	48 89 05 ac 04 03 00 	mov    %rax,0x304ac(%rip)        # 5ac00 <glad_glClearTexImage>
   2a754:	48 8b 45 f8          	mov    -0x8(%rbp),%rax
   2a758:	48 8d 3d 61 b8 00 00 	lea    0xb861(%rip),%rdi        # 35fc0 <_IO_stdin_used+0x8fc0>
   2a75f:	ff d0                	callq  *%rax
   2a761:	48 89 05 d8 04 03 00 	mov    %rax,0x304d8(%rip)        # 5ac40 <glad_glClearTexSubImage>
   2a768:	48 8b 45 f8          	mov    -0x8(%rbp),%rax
   2a76c:	48 8d 3d 8d b8 00 00 	lea    0xb88d(%rip),%rdi        # 36000 <_IO_stdin_used+0x9000>
   2a773:	ff d0                	callq  *%rax
   2a775:	48 89 05 84 f7 02 00 	mov    %rax,0x2f784(%rip)        # 59f00 <glad_glBindBuffersBase>
   2a77c:	48 8b 45 f8          	mov    -0x8(%rbp),%rax
   2a780:	48 8d 3d b9 b8 00 00 	lea    0xb8b9(%rip),%rdi        # 36040 <_IO_stdin_used+0x9040>
   2a787:	ff d0                	callq  *%rax
   2a789:	48 89 05 b0 f7 02 00 	mov    %rax,0x2f7b0(%rip)        # 59f40 <glad_glBindBuffersRange>
   2a790:	48 8b 45 f8          	mov    -0x8(%rbp),%rax
   2a794:	48 8d 3d e5 b8 00 00 	lea    0xb8e5(%rip),%rdi        # 36080 <_IO_stdin_used+0x9080>
   2a79b:	ff d0                	callq  *%rax
   2a79d:	48 89 05 9c fa 02 00 	mov    %rax,0x2fa9c(%rip)        # 5a240 <glad_glBindTextures>
   2a7a4:	48 8b 45 f8          	mov    -0x8(%rbp),%rax
   2a7a8:	48 8d 3d 11 b9 00 00 	lea    0xb911(%rip),%rdi        # 360c0 <_IO_stdin_used+0x90c0>
   2a7af:	ff d0                	callq  *%rax
   2a7b1:	48 89 05 c8 f9 02 00 	mov    %rax,0x2f9c8(%rip)        # 5a180 <glad_glBindSamplers>
   2a7b8:	48 8b 45 f8          	mov    -0x8(%rbp),%rax
   2a7bc:	48 8d 3d 3d b9 00 00 	lea    0xb93d(%rip),%rdi        # 36100 <_IO_stdin_used+0x9100>
   2a7c3:	ff d0                	callq  *%rax
   2a7c5:	48 89 05 b4 f8 02 00 	mov    %rax,0x2f8b4(%rip)        # 5a080 <glad_glBindImageTextures>
   2a7cc:	48 8b 45 f8          	mov    -0x8(%rbp),%rax
   2a7d0:	48 8d 3d 69 b9 00 00 	lea    0xb969(%rip),%rdi        # 36140 <_IO_stdin_used+0x9140>
   2a7d7:	ff d0                	callq  *%rax
   2a7d9:	48 89 05 60 fb 02 00 	mov    %rax,0x2fb60(%rip)        # 5a340 <glad_glBindVertexBuffers>
   2a7e0:	eb 01                	jmp    2a7e3 <_ZL19load_GL_VERSION_4_4PFPvPKcE+0xd1>
   2a7e2:	90                   	nop
   2a7e3:	c9                   	leaveq 
   2a7e4:	c3                   	retq   

000000000002a7e5 <_ZL19load_GL_VERSION_4_5PFPvPKcE>:
   2a7e5:	55                   	push   %rbp
   2a7e6:	48 89 e5             	mov    %rsp,%rbp
   2a7e9:	48 83 ec 10          	sub    $0x10,%rsp
   2a7ed:	48 89 7d f8          	mov    %rdi,-0x8(%rbp)
   2a7f1:	8b 05 09 f4 02 00    	mov    0x2f409(%rip),%eax        # 59c00 <GLAD_GL_VERSION_4_5>
   2a7f7:	85 c0                	test   %eax,%eax
   2a7f9:	0f 84 8a 09 00 00    	je     2b189 <_ZL19load_GL_VERSION_4_5PFPvPKcE+0x9a4>
   2a7ff:	48 8b 45 f8          	mov    -0x8(%rbp),%rax
   2a803:	48 8d 3d 76 b9 00 00 	lea    0xb976(%rip),%rdi        # 36180 <_IO_stdin_used+0x9180>
   2a80a:	ff d0                	callq  *%rax
   2a80c:	48 89 05 ad 04 03 00 	mov    %rax,0x304ad(%rip)        # 5acc0 <glad_glClipControl>
   2a813:	48 8b 45 f8          	mov    -0x8(%rbp),%rax
   2a817:	48 8d 3d a2 b9 00 00 	lea    0xb9a2(%rip),%rdi        # 361c0 <_IO_stdin_used+0x91c0>
   2a81e:	ff d0                	callq  *%rax
   2a820:	48 89 05 19 0e 03 00 	mov    %rax,0x30e19(%rip)        # 5b640 <glad_glCreateTransformFeedbacks>
   2a827:	48 8b 45 f8          	mov    -0x8(%rbp),%rax
   2a82b:	48 8d 3d ce b9 00 00 	lea    0xb9ce(%rip),%rdi        # 36200 <_IO_stdin_used+0x9200>
   2a832:	ff d0                	callq  *%rax
   2a834:	48 89 05 85 79 03 00 	mov    %rax,0x37985(%rip)        # 621c0 <glad_glTransformFeedbackBufferBase>
   2a83b:	48 8b 45 f8          	mov    -0x8(%rbp),%rax
   2a83f:	48 8d 3d fa b9 00 00 	lea    0xb9fa(%rip),%rdi        # 36240 <_IO_stdin_used+0x9240>
   2a846:	ff d0                	callq  *%rax
   2a848:	48 89 05 b1 79 03 00 	mov    %rax,0x379b1(%rip)        # 62200 <glad_glTransformFeedbackBufferRange>
   2a84f:	48 8b 45 f8          	mov    -0x8(%rbp),%rax
   2a853:	48 8d 3d 26 ba 00 00 	lea    0xba26(%rip),%rdi        # 36280 <_IO_stdin_used+0x9280>
   2a85a:	ff d0                	callq  *%rax
   2a85c:	48 89 05 1d 3c 03 00 	mov    %rax,0x33c1d(%rip)        # 5e480 <glad_glGetTransformFeedbackiv>
   2a863:	48 8b 45 f8          	mov    -0x8(%rbp),%rax
   2a867:	48 8d 3d 52 ba 00 00 	lea    0xba52(%rip),%rdi        # 362c0 <_IO_stdin_used+0x92c0>
   2a86e:	ff d0                	callq  *%rax
   2a870:	48 89 05 c9 3b 03 00 	mov    %rax,0x33bc9(%rip)        # 5e440 <glad_glGetTransformFeedbacki_v>
   2a877:	48 8b 45 f8          	mov    -0x8(%rbp),%rax
   2a87b:	48 8d 3d 7e ba 00 00 	lea    0xba7e(%rip),%rdi        # 36300 <_IO_stdin_used+0x9300>
   2a882:	ff d0                	callq  *%rax
   2a884:	48 89 05 75 3b 03 00 	mov    %rax,0x33b75(%rip)        # 5e400 <glad_glGetTransformFeedbacki64_v>
   2a88b:	48 8b 45 f8          	mov    -0x8(%rbp),%rax
   2a88f:	48 8d 3d aa ba 00 00 	lea    0xbaaa(%rip),%rdi        # 36340 <_IO_stdin_used+0x9340>
   2a896:	ff d0                	callq  *%rax
   2a898:	48 89 05 21 0b 03 00 	mov    %rax,0x30b21(%rip)        # 5b3c0 <glad_glCreateBuffers>
   2a89f:	48 8b 45 f8          	mov    -0x8(%rbp),%rax
   2a8a3:	48 8d 3d d6 ba 00 00 	lea    0xbad6(%rip),%rdi        # 36380 <_IO_stdin_used+0x9380>
   2a8aa:	ff d0                	callq  *%rax
   2a8ac:	48 89 05 cd 50 03 00 	mov    %rax,0x350cd(%rip)        # 5f980 <glad_glNamedBufferStorage>
   2a8b3:	48 8b 45 f8          	mov    -0x8(%rbp),%rax
   2a8b7:	48 8d 3d 02 bb 00 00 	lea    0xbb02(%rip),%rdi        # 363c0 <_IO_stdin_used+0x93c0>
   2a8be:	ff d0                	callq  *%rax
   2a8c0:	48 89 05 79 50 03 00 	mov    %rax,0x35079(%rip)        # 5f940 <glad_glNamedBufferData>
   2a8c7:	48 8b 45 f8          	mov    -0x8(%rbp),%rax
   2a8cb:	48 8d 3d 2e bb 00 00 	lea    0xbb2e(%rip),%rdi        # 36400 <_IO_stdin_used+0x9400>
   2a8d2:	ff d0                	callq  *%rax
   2a8d4:	48 89 05 e5 50 03 00 	mov    %rax,0x350e5(%rip)        # 5f9c0 <glad_glNamedBufferSubData>
   2a8db:	48 8b 45 f8          	mov    -0x8(%rbp),%rax
   2a8df:	48 8d 3d 5a bb 00 00 	lea    0xbb5a(%rip),%rdi        # 36440 <_IO_stdin_used+0x9440>
   2a8e6:	ff d0                	callq  *%rax
   2a8e8:	48 89 05 91 08 03 00 	mov    %rax,0x30891(%rip)        # 5b180 <glad_glCopyNamedBufferSubData>
   2a8ef:	48 8b 45 f8          	mov    -0x8(%rbp),%rax
   2a8f3:	48 8d 3d 86 bb 00 00 	lea    0xbb86(%rip),%rdi        # 36480 <_IO_stdin_used+0x9480>
   2a8fa:	ff d0                	callq  *%rax
   2a8fc:	48 89 05 3d 01 03 00 	mov    %rax,0x3013d(%rip)        # 5aa40 <glad_glClearNamedBufferData>
   2a903:	48 8b 45 f8          	mov    -0x8(%rbp),%rax
   2a907:	48 8d 3d b2 bb 00 00 	lea    0xbbb2(%rip),%rdi        # 364c0 <_IO_stdin_used+0x94c0>
   2a90e:	ff d0                	callq  *%rax
   2a910:	48 89 05 69 01 03 00 	mov    %rax,0x30169(%rip)        # 5aa80 <glad_glClearNamedBufferSubData>
   2a917:	48 8b 45 f8          	mov    -0x8(%rbp),%rax
   2a91b:	48 8d 3d de bb 00 00 	lea    0xbbde(%rip),%rdi        # 36500 <_IO_stdin_used+0x9500>
   2a922:	ff d0                	callq  *%rax
   2a924:	48 89 05 95 4b 03 00 	mov    %rax,0x34b95(%rip)        # 5f4c0 <glad_glMapNamedBuffer>
   2a92b:	48 8b 45 f8          	mov    -0x8(%rbp),%rax
   2a92f:	48 8d 3d 0a bc 00 00 	lea    0xbc0a(%rip),%rdi        # 36540 <_IO_stdin_used+0x9540>
   2a936:	ff d0                	callq  *%rax
   2a938:	48 89 05 c1 4b 03 00 	mov    %rax,0x34bc1(%rip)        # 5f500 <glad_glMapNamedBufferRange>
   2a93f:	48 8b 45 f8          	mov    -0x8(%rbp),%rax
   2a943:	48 8d 3d 36 bc 00 00 	lea    0xbc36(%rip),%rdi        # 36580 <_IO_stdin_used+0x9580>
   2a94a:	ff d0                	callq  *%rax
   2a94c:	48 89 05 6d 86 03 00 	mov    %rax,0x3866d(%rip)        # 62fc0 <glad_glUnmapNamedBuffer>
   2a953:	48 8b 45 f8          	mov    -0x8(%rbp),%rax
   2a957:	48 8d 3d 62 bc 00 00 	lea    0xbc62(%rip),%rdi        # 365c0 <_IO_stdin_used+0x95c0>
   2a95e:	ff d0                	callq  *%rax
   2a960:	48 89 05 59 1c 03 00 	mov    %rax,0x31c59(%rip)        # 5c5c0 <glad_glFlushMappedNamedBufferRange>
   2a967:	48 8b 45 f8          	mov    -0x8(%rbp),%rax
   2a96b:	48 8d 3d 8e bc 00 00 	lea    0xbc8e(%rip),%rdi        # 36600 <_IO_stdin_used+0x9600>
   2a972:	ff d0                	callq  *%rax
   2a974:	48 89 05 45 2b 03 00 	mov    %rax,0x32b45(%rip)        # 5d4c0 <glad_glGetNamedBufferParameteriv>
   2a97b:	48 8b 45 f8          	mov    -0x8(%rbp),%rax
   2a97f:	48 8d 3d ba bc 00 00 	lea    0xbcba(%rip),%rdi        # 36640 <_IO_stdin_used+0x9640>
   2a986:	ff d0                	callq  *%rax
   2a988:	48 89 05 f1 2a 03 00 	mov    %rax,0x32af1(%rip)        # 5d480 <glad_glGetNamedBufferParameteri64v>
   2a98f:	48 8b 45 f8          	mov    -0x8(%rbp),%rax
   2a993:	48 8d 3d e6 bc 00 00 	lea    0xbce6(%rip),%rdi        # 36680 <_IO_stdin_used+0x9680>
   2a99a:	ff d0                	callq  *%rax
   2a99c:	48 89 05 5d 2b 03 00 	mov    %rax,0x32b5d(%rip)        # 5d500 <glad_glGetNamedBufferPointerv>
   2a9a3:	48 8b 45 f8          	mov    -0x8(%rbp),%rax
   2a9a7:	48 8d 3d 12 bd 00 00 	lea    0xbd12(%rip),%rdi        # 366c0 <_IO_stdin_used+0x96c0>
   2a9ae:	ff d0                	callq  *%rax
   2a9b0:	48 89 05 89 2b 03 00 	mov    %rax,0x32b89(%rip)        # 5d540 <glad_glGetNamedBufferSubData>
   2a9b7:	48 8b 45 f8          	mov    -0x8(%rbp),%rax
   2a9bb:	48 8d 3d 3e bd 00 00 	lea    0xbd3e(%rip),%rdi        # 36700 <_IO_stdin_used+0x9700>
   2a9c2:	ff d0                	callq  *%rax
   2a9c4:	48 89 05 35 0a 03 00 	mov    %rax,0x30a35(%rip)        # 5b400 <glad_glCreateFramebuffers>
   2a9cb:	48 8b 45 f8          	mov    -0x8(%rbp),%rax
   2a9cf:	48 8d 3d 6a bd 00 00 	lea    0xbd6a(%rip),%rdi        # 36740 <_IO_stdin_used+0x9740>
   2a9d6:	ff d0                	callq  *%rax
   2a9d8:	48 89 05 21 51 03 00 	mov    %rax,0x35121(%rip)        # 5fb00 <glad_glNamedFramebufferRenderbuffer>
   2a9df:	48 8b 45 f8          	mov    -0x8(%rbp),%rax
   2a9e3:	48 8d 3d 96 bd 00 00 	lea    0xbd96(%rip),%rdi        # 36780 <_IO_stdin_used+0x9780>
   2a9ea:	ff d0                	callq  *%rax
   2a9ec:	48 89 05 8d 50 03 00 	mov    %rax,0x3508d(%rip)        # 5fa80 <glad_glNamedFramebufferParameteri>
   2a9f3:	48 8b 45 f8          	mov    -0x8(%rbp),%rax
   2a9f7:	48 8d 3d c2 bd 00 00 	lea    0xbdc2(%rip),%rdi        # 367c0 <_IO_stdin_used+0x97c0>
   2a9fe:	ff d0                	callq  *%rax
   2aa00:	48 89 05 39 51 03 00 	mov    %rax,0x35139(%rip)        # 5fb40 <glad_glNamedFramebufferTexture>
   2aa07:	48 8b 45 f8          	mov    -0x8(%rbp),%rax
   2aa0b:	48 8d 3d ee bd 00 00 	lea    0xbdee(%rip),%rdi        # 36800 <_IO_stdin_used+0x9800>
   2aa12:	ff d0                	callq  *%rax
   2aa14:	48 89 05 65 51 03 00 	mov    %rax,0x35165(%rip)        # 5fb80 <glad_glNamedFramebufferTextureLayer>
   2aa1b:	48 8b 45 f8          	mov    -0x8(%rbp),%rax
   2aa1f:	48 8d 3d 1a be 00 00 	lea    0xbe1a(%rip),%rdi        # 36840 <_IO_stdin_used+0x9840>
   2aa26:	ff d0                	callq  *%rax
   2aa28:	48 89 05 d1 4f 03 00 	mov    %rax,0x34fd1(%rip)        # 5fa00 <glad_glNamedFramebufferDrawBuffer>
   2aa2f:	48 8b 45 f8          	mov    -0x8(%rbp),%rax
   2aa33:	48 8d 3d 46 be 00 00 	lea    0xbe46(%rip),%rdi        # 36880 <_IO_stdin_used+0x9880>
   2aa3a:	ff d0                	callq  *%rax
   2aa3c:	48 89 05 fd 4f 03 00 	mov    %rax,0x34ffd(%rip)        # 5fa40 <glad_glNamedFramebufferDrawBuffers>
   2aa43:	48 8b 45 f8          	mov    -0x8(%rbp),%rax
   2aa47:	48 8d 3d 72 be 00 00 	lea    0xbe72(%rip),%rdi        # 368c0 <_IO_stdin_used+0x98c0>
   2aa4e:	ff d0                	callq  *%rax
   2aa50:	48 89 05 69 50 03 00 	mov    %rax,0x35069(%rip)        # 5fac0 <glad_glNamedFramebufferReadBuffer>
   2aa57:	48 8b 45 f8          	mov    -0x8(%rbp),%rax
   2aa5b:	48 8d 3d 9e be 00 00 	lea    0xbe9e(%rip),%rdi        # 36900 <_IO_stdin_used+0x9900>
   2aa62:	ff d0                	callq  *%rax
   2aa64:	48 89 05 55 44 03 00 	mov    %rax,0x34455(%rip)        # 5eec0 <glad_glInvalidateNamedFramebufferData>
   2aa6b:	48 8b 45 f8          	mov    -0x8(%rbp),%rax
   2aa6f:	48 8d 3d ea be 00 00 	lea    0xbeea(%rip),%rdi        # 36960 <_IO_stdin_used+0x9960>
   2aa76:	ff d0                	callq  *%rax
   2aa78:	48 89 05 81 44 03 00 	mov    %rax,0x34481(%rip)        # 5ef00 <glad_glInvalidateNamedFramebufferSubData>
   2aa7f:	48 8b 45 f8          	mov    -0x8(%rbp),%rax
   2aa83:	48 8d 3d 36 bf 00 00 	lea    0xbf36(%rip),%rdi        # 369c0 <_IO_stdin_used+0x99c0>
   2aa8a:	ff d0                	callq  *%rax
   2aa8c:	48 89 05 ad 00 03 00 	mov    %rax,0x300ad(%rip)        # 5ab40 <glad_glClearNamedFramebufferiv>
   2aa93:	48 8b 45 f8          	mov    -0x8(%rbp),%rax
   2aa97:	48 8d 3d 62 bf 00 00 	lea    0xbf62(%rip),%rdi        # 36a00 <_IO_stdin_used+0x9a00>
   2aa9e:	ff d0                	callq  *%rax
   2aaa0:	48 89 05 d9 00 03 00 	mov    %rax,0x300d9(%rip)        # 5ab80 <glad_glClearNamedFramebufferuiv>
   2aaa7:	48 8b 45 f8          	mov    -0x8(%rbp),%rax
   2aaab:	48 8d 3d 8e bf 00 00 	lea    0xbf8e(%rip),%rdi        # 36a40 <_IO_stdin_used+0x9a40>
   2aab2:	ff d0                	callq  *%rax
   2aab4:	48 89 05 45 00 03 00 	mov    %rax,0x30045(%rip)        # 5ab00 <glad_glClearNamedFramebufferfv>
   2aabb:	48 8b 45 f8          	mov    -0x8(%rbp),%rax
   2aabf:	48 8d 3d ba bf 00 00 	lea    0xbfba(%rip),%rdi        # 36a80 <_IO_stdin_used+0x9a80>
   2aac6:	ff d0                	callq  *%rax
   2aac8:	48 89 05 f1 ff 02 00 	mov    %rax,0x2fff1(%rip)        # 5aac0 <glad_glClearNamedFramebufferfi>
   2aacf:	48 8b 45 f8          	mov    -0x8(%rbp),%rax
   2aad3:	48 8d 3d e6 bf 00 00 	lea    0xbfe6(%rip),%rdi        # 36ac0 <_IO_stdin_used+0x9ac0>
   2aada:	ff d0                	callq  *%rax
   2aadc:	48 89 05 1d fb 02 00 	mov    %rax,0x2fb1d(%rip)        # 5a600 <glad_glBlitNamedFramebuffer>
   2aae3:	48 8b 45 f8          	mov    -0x8(%rbp),%rax
   2aae7:	48 8d 3d 12 c0 00 00 	lea    0xc012(%rip),%rdi        # 36b00 <_IO_stdin_used+0x9b00>
   2aaee:	ff d0                	callq  *%rax
   2aaf0:	48 89 05 49 fc 02 00 	mov    %rax,0x2fc49(%rip)        # 5a740 <glad_glCheckNamedFramebufferStatus>
   2aaf7:	48 8b 45 f8          	mov    -0x8(%rbp),%rax
   2aafb:	48 8d 3d 3e c0 00 00 	lea    0xc03e(%rip),%rdi        # 36b40 <_IO_stdin_used+0x9b40>
   2ab02:	ff d0                	callq  *%rax
   2ab04:	48 89 05 b5 2a 03 00 	mov    %rax,0x32ab5(%rip)        # 5d5c0 <glad_glGetNamedFramebufferParameteriv>
   2ab0b:	48 8b 45 f8          	mov    -0x8(%rbp),%rax
   2ab0f:	48 8d 3d 8a c0 00 00 	lea    0xc08a(%rip),%rdi        # 36ba0 <_IO_stdin_used+0x9ba0>
   2ab16:	ff d0                	callq  *%rax
   2ab18:	48 89 05 61 2a 03 00 	mov    %rax,0x32a61(%rip)        # 5d580 <glad_glGetNamedFramebufferAttachmentParameteriv>
   2ab1f:	48 8b 45 f8          	mov    -0x8(%rbp),%rax
   2ab23:	48 8d 3d d6 c0 00 00 	lea    0xc0d6(%rip),%rdi        # 36c00 <_IO_stdin_used+0x9c00>
   2ab2a:	ff d0                	callq  *%rax
   2ab2c:	48 89 05 cd 09 03 00 	mov    %rax,0x309cd(%rip)        # 5b500 <glad_glCreateRenderbuffers>
   2ab33:	48 8b 45 f8          	mov    -0x8(%rbp),%rax
   2ab37:	48 8d 3d 02 c1 00 00 	lea    0xc102(%rip),%rdi        # 36c40 <_IO_stdin_used+0x9c40>
   2ab3e:	ff d0                	callq  *%rax
   2ab40:	48 89 05 79 50 03 00 	mov    %rax,0x35079(%rip)        # 5fbc0 <glad_glNamedRenderbufferStorage>
   2ab47:	48 8b 45 f8          	mov    -0x8(%rbp),%rax
   2ab4b:	48 8d 3d 2e c1 00 00 	lea    0xc12e(%rip),%rdi        # 36c80 <_IO_stdin_used+0x9c80>
   2ab52:	ff d0                	callq  *%rax
   2ab54:	48 89 05 a5 50 03 00 	mov    %rax,0x350a5(%rip)        # 5fc00 <glad_glNamedRenderbufferStorageMultisample>
   2ab5b:	48 8b 45 f8          	mov    -0x8(%rbp),%rax
   2ab5f:	48 8d 3d 7a c1 00 00 	lea    0xc17a(%rip),%rdi        # 36ce0 <_IO_stdin_used+0x9ce0>
   2ab66:	ff d0                	callq  *%rax
   2ab68:	48 89 05 91 2a 03 00 	mov    %rax,0x32a91(%rip)        # 5d600 <glad_glGetNamedRenderbufferParameteriv>
   2ab6f:	48 8b 45 f8          	mov    -0x8(%rbp),%rax
   2ab73:	48 8d 3d c6 c1 00 00 	lea    0xc1c6(%rip),%rdi        # 36d40 <_IO_stdin_used+0x9d40>
   2ab7a:	ff d0                	callq  *%rax
   2ab7c:	48 89 05 7d 0a 03 00 	mov    %rax,0x30a7d(%rip)        # 5b600 <glad_glCreateTextures>
   2ab83:	48 8b 45 f8          	mov    -0x8(%rbp),%rax
   2ab87:	48 8d 3d f2 c1 00 00 	lea    0xc1f2(%rip),%rdi        # 36d80 <_IO_stdin_used+0x9d80>
   2ab8e:	ff d0                	callq  *%rax
   2ab90:	48 89 05 e9 71 03 00 	mov    %rax,0x371e9(%rip)        # 61d80 <glad_glTextureBuffer>
   2ab97:	48 8b 45 f8          	mov    -0x8(%rbp),%rax
   2ab9b:	48 8d 3d 1e c2 00 00 	lea    0xc21e(%rip),%rdi        # 36dc0 <_IO_stdin_used+0x9dc0>
   2aba2:	ff d0                	callq  *%rax
   2aba4:	48 89 05 15 72 03 00 	mov    %rax,0x37215(%rip)        # 61dc0 <glad_glTextureBufferRange>
   2abab:	48 8b 45 f8          	mov    -0x8(%rbp),%rax
   2abaf:	48 8d 3d 4a c2 00 00 	lea    0xc24a(%rip),%rdi        # 36e00 <_IO_stdin_used+0x9e00>
   2abb6:	ff d0                	callq  *%rax
   2abb8:	48 89 05 c1 73 03 00 	mov    %rax,0x373c1(%rip)        # 61f80 <glad_glTextureStorage1D>
   2abbf:	48 8b 45 f8          	mov    -0x8(%rbp),%rax
   2abc3:	48 8d 3d 76 c2 00 00 	lea    0xc276(%rip),%rdi        # 36e40 <_IO_stdin_used+0x9e40>
   2abca:	ff d0                	callq  *%rax
   2abcc:	48 89 05 ed 73 03 00 	mov    %rax,0x373ed(%rip)        # 61fc0 <glad_glTextureStorage2D>
   2abd3:	48 8b 45 f8          	mov    -0x8(%rbp),%rax
   2abd7:	48 8d 3d a2 c2 00 00 	lea    0xc2a2(%rip),%rdi        # 36e80 <_IO_stdin_used+0x9e80>
   2abde:	ff d0                	callq  *%rax
   2abe0:	48 89 05 59 74 03 00 	mov    %rax,0x37459(%rip)        # 62040 <glad_glTextureStorage3D>
   2abe7:	48 8b 45 f8          	mov    -0x8(%rbp),%rax
   2abeb:	48 8d 3d ce c2 00 00 	lea    0xc2ce(%rip),%rdi        # 36ec0 <_IO_stdin_used+0x9ec0>
   2abf2:	ff d0                	callq  *%rax
   2abf4:	48 89 05 05 74 03 00 	mov    %rax,0x37405(%rip)        # 62000 <glad_glTextureStorage2DMultisample>
   2abfb:	48 8b 45 f8          	mov    -0x8(%rbp),%rax
   2abff:	48 8d 3d fa c2 00 00 	lea    0xc2fa(%rip),%rdi        # 36f00 <_IO_stdin_used+0x9f00>
   2ac06:	ff d0                	callq  *%rax
   2ac08:	48 89 05 71 74 03 00 	mov    %rax,0x37471(%rip)        # 62080 <glad_glTextureStorage3DMultisample>
   2ac0f:	48 8b 45 f8          	mov    -0x8(%rbp),%rax
   2ac13:	48 8d 3d 26 c3 00 00 	lea    0xc326(%rip),%rdi        # 36f40 <_IO_stdin_used+0x9f40>
   2ac1a:	ff d0                	callq  *%rax
   2ac1c:	48 89 05 9d 74 03 00 	mov    %rax,0x3749d(%rip)        # 620c0 <glad_glTextureSubImage1D>
   2ac23:	48 8b 45 f8          	mov    -0x8(%rbp),%rax
   2ac27:	48 8d 3d 52 c3 00 00 	lea    0xc352(%rip),%rdi        # 36f80 <_IO_stdin_used+0x9f80>
   2ac2e:	ff d0                	callq  *%rax
   2ac30:	48 89 05 c9 74 03 00 	mov    %rax,0x374c9(%rip)        # 62100 <glad_glTextureSubImage2D>
   2ac37:	48 8b 45 f8          	mov    -0x8(%rbp),%rax
   2ac3b:	48 8d 3d 7e c3 00 00 	lea    0xc37e(%rip),%rdi        # 36fc0 <_IO_stdin_used+0x9fc0>
   2ac42:	ff d0                	callq  *%rax
   2ac44:	48 89 05 f5 74 03 00 	mov    %rax,0x374f5(%rip)        # 62140 <glad_glTextureSubImage3D>
   2ac4b:	48 8b 45 f8          	mov    -0x8(%rbp),%rax
   2ac4f:	48 8d 3d aa c3 00 00 	lea    0xc3aa(%rip),%rdi        # 37000 <_IO_stdin_used+0xa000>
   2ac56:	ff d0                	callq  *%rax
   2ac58:	48 89 05 e1 03 03 00 	mov    %rax,0x303e1(%rip)        # 5b040 <glad_glCompressedTextureSubImage1D>
   2ac5f:	48 8b 45 f8          	mov    -0x8(%rbp),%rax
   2ac63:	48 8d 3d d6 c3 00 00 	lea    0xc3d6(%rip),%rdi        # 37040 <_IO_stdin_used+0xa040>
   2ac6a:	ff d0                	callq  *%rax
   2ac6c:	48 89 05 0d 04 03 00 	mov    %rax,0x3040d(%rip)        # 5b080 <glad_glCompressedTextureSubImage2D>
   2ac73:	48 8b 45 f8          	mov    -0x8(%rbp),%rax
   2ac77:	48 8d 3d 02 c4 00 00 	lea    0xc402(%rip),%rdi        # 37080 <_IO_stdin_used+0xa080>
   2ac7e:	ff d0                	callq  *%rax
   2ac80:	48 89 05 39 04 03 00 	mov    %rax,0x30439(%rip)        # 5b0c0 <glad_glCompressedTextureSubImage3D>
   2ac87:	48 8b 45 f8          	mov    -0x8(%rbp),%rax
   2ac8b:	48 8d 3d 2e c4 00 00 	lea    0xc42e(%rip),%rdi        # 370c0 <_IO_stdin_used+0xa0c0>
   2ac92:	ff d0                	callq  *%rax
   2ac94:	48 89 05 65 06 03 00 	mov    %rax,0x30665(%rip)        # 5b300 <glad_glCopyTextureSubImage1D>
   2ac9b:	48 8b 45 f8          	mov    -0x8(%rbp),%rax
   2ac9f:	48 8d 3d 5a c4 00 00 	lea    0xc45a(%rip),%rdi        # 37100 <_IO_stdin_used+0xa100>
   2aca6:	ff d0                	callq  *%rax
   2aca8:	48 89 05 91 06 03 00 	mov    %rax,0x30691(%rip)        # 5b340 <glad_glCopyTextureSubImage2D>
   2acaf:	48 8b 45 f8          	mov    -0x8(%rbp),%rax
   2acb3:	48 8d 3d 86 c4 00 00 	lea    0xc486(%rip),%rdi        # 37140 <_IO_stdin_used+0xa140>
   2acba:	ff d0                	callq  *%rax
   2acbc:	48 89 05 bd 06 03 00 	mov    %rax,0x306bd(%rip)        # 5b380 <glad_glCopyTextureSubImage3D>
   2acc3:	48 8b 45 f8          	mov    -0x8(%rbp),%rax
   2acc7:	48 8d 3d b2 c4 00 00 	lea    0xc4b2(%rip),%rdi        # 37180 <_IO_stdin_used+0xa180>
   2acce:	ff d0                	callq  *%rax
   2acd0:	48 89 05 a9 71 03 00 	mov    %rax,0x371a9(%rip)        # 61e80 <glad_glTextureParameterf>
   2acd7:	48 8b 45 f8          	mov    -0x8(%rbp),%rax
   2acdb:	48 8d 3d de c4 00 00 	lea    0xc4de(%rip),%rdi        # 371c0 <_IO_stdin_used+0xa1c0>
   2ace2:	ff d0                	callq  *%rax
   2ace4:	48 89 05 d5 71 03 00 	mov    %rax,0x371d5(%rip)        # 61ec0 <glad_glTextureParameterfv>
   2aceb:	48 8b 45 f8          	mov    -0x8(%rbp),%rax
   2acef:	48 8d 3d 0a c5 00 00 	lea    0xc50a(%rip),%rdi        # 37200 <_IO_stdin_used+0xa200>
   2acf6:	ff d0                	callq  *%rax
   2acf8:	48 89 05 01 72 03 00 	mov    %rax,0x37201(%rip)        # 61f00 <glad_glTextureParameteri>
   2acff:	48 8b 45 f8          	mov    -0x8(%rbp),%rax
   2ad03:	48 8d 3d 36 c5 00 00 	lea    0xc536(%rip),%rdi        # 37240 <_IO_stdin_used+0xa240>
   2ad0a:	ff d0                	callq  *%rax
   2ad0c:	48 89 05 ed 70 03 00 	mov    %rax,0x370ed(%rip)        # 61e00 <glad_glTextureParameterIiv>
   2ad13:	48 8b 45 f8          	mov    -0x8(%rbp),%rax
   2ad17:	48 8d 3d 62 c5 00 00 	lea    0xc562(%rip),%rdi        # 37280 <_IO_stdin_used+0xa280>
   2ad1e:	ff d0                	callq  *%rax
   2ad20:	48 89 05 19 71 03 00 	mov    %rax,0x37119(%rip)        # 61e40 <glad_glTextureParameterIuiv>
   2ad27:	48 8b 45 f8          	mov    -0x8(%rbp),%rax
   2ad2b:	48 8d 3d 8e c5 00 00 	lea    0xc58e(%rip),%rdi        # 372c0 <_IO_stdin_used+0xa2c0>
   2ad32:	ff d0                	callq  *%rax
   2ad34:	48 89 05 05 72 03 00 	mov    %rax,0x37205(%rip)        # 61f40 <glad_glTextureParameteriv>
   2ad3b:	48 8b 45 f8          	mov    -0x8(%rbp),%rax
   2ad3f:	48 8d 3d ba c5 00 00 	lea    0xc5ba(%rip),%rdi        # 37300 <_IO_stdin_used+0xa300>
   2ad46:	ff d0                	callq  *%rax
   2ad48:	48 89 05 31 1d 03 00 	mov    %rax,0x31d31(%rip)        # 5ca80 <glad_glGenerateTextureMipmap>
   2ad4f:	48 8b 45 f8          	mov    -0x8(%rbp),%rax
   2ad53:	48 8d 3d e6 c5 00 00 	lea    0xc5e6(%rip),%rdi        # 37340 <_IO_stdin_used+0xa340>
   2ad5a:	ff d0                	callq  *%rax
   2ad5c:	48 89 05 9d f4 02 00 	mov    %rax,0x2f49d(%rip)        # 5a200 <glad_glBindTextureUnit>
   2ad63:	48 8b 45 f8          	mov    -0x8(%rbp),%rax
   2ad67:	48 8d 3d 12 c6 00 00 	lea    0xc612(%rip),%rdi        # 37380 <_IO_stdin_used+0xa380>
   2ad6e:	ff d0                	callq  *%rax
   2ad70:	48 89 05 49 34 03 00 	mov    %rax,0x33449(%rip)        # 5e1c0 <glad_glGetTextureImage>
   2ad77:	48 8b 45 f8          	mov    -0x8(%rbp),%rax
   2ad7b:	48 8d 3d 3e c6 00 00 	lea    0xc63e(%rip),%rdi        # 373c0 <_IO_stdin_used+0xa3c0>
   2ad82:	ff d0                	callq  *%rax
   2ad84:	48 89 05 f5 21 03 00 	mov    %rax,0x321f5(%rip)        # 5cf80 <glad_glGetCompressedTextureImage>
   2ad8b:	48 8b 45 f8          	mov    -0x8(%rbp),%rax
   2ad8f:	48 8d 3d 6a c6 00 00 	lea    0xc66a(%rip),%rdi        # 37400 <_IO_stdin_used+0xa400>
   2ad96:	ff d0                	callq  *%rax
   2ad98:	48 89 05 61 34 03 00 	mov    %rax,0x33461(%rip)        # 5e200 <glad_glGetTextureLevelParameterfv>
   2ad9f:	48 8b 45 f8          	mov    -0x8(%rbp),%rax
   2ada3:	48 8d 3d 96 c6 00 00 	lea    0xc696(%rip),%rdi        # 37440 <_IO_stdin_used+0xa440>
   2adaa:	ff d0                	callq  *%rax
   2adac:	48 89 05 8d 34 03 00 	mov    %rax,0x3348d(%rip)        # 5e240 <glad_glGetTextureLevelParameteriv>
   2adb3:	48 8b 45 f8          	mov    -0x8(%rbp),%rax
   2adb7:	48 8d 3d c2 c6 00 00 	lea    0xc6c2(%rip),%rdi        # 37480 <_IO_stdin_used+0xa480>
   2adbe:	ff d0                	callq  *%rax
   2adc0:	48 89 05 39 35 03 00 	mov    %rax,0x33539(%rip)        # 5e300 <glad_glGetTextureParameterfv>
   2adc7:	48 8b 45 f8          	mov    -0x8(%rbp),%rax
   2adcb:	48 8d 3d ee c6 00 00 	lea    0xc6ee(%rip),%rdi        # 374c0 <_IO_stdin_used+0xa4c0>
   2add2:	ff d0                	callq  *%rax
   2add4:	48 89 05 a5 34 03 00 	mov    %rax,0x334a5(%rip)        # 5e280 <glad_glGetTextureParameterIiv>
   2addb:	48 8b 45 f8          	mov    -0x8(%rbp),%rax
   2addf:	48 8d 3d 1a c7 00 00 	lea    0xc71a(%rip),%rdi        # 37500 <_IO_stdin_used+0xa500>
   2ade6:	ff d0                	callq  *%rax
   2ade8:	48 89 05 d1 34 03 00 	mov    %rax,0x334d1(%rip)        # 5e2c0 <glad_glGetTextureParameterIuiv>
   2adef:	48 8b 45 f8          	mov    -0x8(%rbp),%rax
   2adf3:	48 8d 3d 46 c7 00 00 	lea    0xc746(%rip),%rdi        # 37540 <_IO_stdin_used+0xa540>
   2adfa:	ff d0                	callq  *%rax
   2adfc:	48 89 05 3d 35 03 00 	mov    %rax,0x3353d(%rip)        # 5e340 <glad_glGetTextureParameteriv>
   2ae03:	48 8b 45 f8          	mov    -0x8(%rbp),%rax
   2ae07:	48 8d 3d 72 c7 00 00 	lea    0xc772(%rip),%rdi        # 37580 <_IO_stdin_used+0xa580>
   2ae0e:	ff d0                	callq  *%rax
   2ae10:	48 89 05 69 08 03 00 	mov    %rax,0x30869(%rip)        # 5b680 <glad_glCreateVertexArrays>
   2ae17:	48 8b 45 f8          	mov    -0x8(%rbp),%rax
   2ae1b:	48 8d 3d 9e c7 00 00 	lea    0xc79e(%rip),%rdi        # 375c0 <_IO_stdin_used+0xa5c0>
   2ae22:	ff d0                	callq  *%rax
   2ae24:	48 89 05 95 0e 03 00 	mov    %rax,0x30e95(%rip)        # 5bcc0 <glad_glDisableVertexArrayAttrib>
   2ae2b:	48 8b 45 f8          	mov    -0x8(%rbp),%rax
   2ae2f:	48 8d 3d ca c7 00 00 	lea    0xc7ca(%rip),%rdi        # 37600 <_IO_stdin_used+0xa600>
   2ae36:	ff d0                	callq  *%rax
   2ae38:	48 89 05 c1 14 03 00 	mov    %rax,0x314c1(%rip)        # 5c300 <glad_glEnableVertexArrayAttrib>
   2ae3f:	48 8b 45 f8          	mov    -0x8(%rbp),%rax
   2ae43:	48 8d 3d f6 c7 00 00 	lea    0xc7f6(%rip),%rdi        # 37640 <_IO_stdin_used+0xa640>
   2ae4a:	ff d0                	callq  *%rax
   2ae4c:	48 89 05 ed 83 03 00 	mov    %rax,0x383ed(%rip)        # 63240 <glad_glVertexArrayElementBuffer>
   2ae53:	48 8b 45 f8          	mov    -0x8(%rbp),%rax
   2ae57:	48 8d 3d 22 c8 00 00 	lea    0xc822(%rip),%rdi        # 37680 <_IO_stdin_used+0xa680>
   2ae5e:	ff d0                	callq  *%rax
   2ae60:	48 89 05 19 84 03 00 	mov    %rax,0x38419(%rip)        # 63280 <glad_glVertexArrayVertexBuffer>
   2ae67:	48 8b 45 f8          	mov    -0x8(%rbp),%rax
   2ae6b:	48 8d 3d 4e c8 00 00 	lea    0xc84e(%rip),%rdi        # 376c0 <_IO_stdin_used+0xa6c0>
   2ae72:	ff d0                	callq  *%rax
   2ae74:	48 89 05 45 84 03 00 	mov    %rax,0x38445(%rip)        # 632c0 <glad_glVertexArrayVertexBuffers>
   2ae7b:	48 8b 45 f8          	mov    -0x8(%rbp),%rax
   2ae7f:	48 8d 3d 7a c8 00 00 	lea    0xc87a(%rip),%rdi        # 37700 <_IO_stdin_used+0xa700>
   2ae86:	ff d0                	callq  *%rax
   2ae88:	48 89 05 71 82 03 00 	mov    %rax,0x38271(%rip)        # 63100 <glad_glVertexArrayAttribBinding>
   2ae8f:	48 8b 45 f8          	mov    -0x8(%rbp),%rax
   2ae93:	48 8d 3d a6 c8 00 00 	lea    0xc8a6(%rip),%rdi        # 37740 <_IO_stdin_used+0xa740>
   2ae9a:	ff d0                	callq  *%rax
   2ae9c:	48 89 05 9d 82 03 00 	mov    %rax,0x3829d(%rip)        # 63140 <glad_glVertexArrayAttribFormat>
   2aea3:	48 8b 45 f8          	mov    -0x8(%rbp),%rax
   2aea7:	48 8d 3d d2 c8 00 00 	lea    0xc8d2(%rip),%rdi        # 37780 <_IO_stdin_used+0xa780>
   2aeae:	ff d0                	callq  *%rax
   2aeb0:	48 89 05 c9 82 03 00 	mov    %rax,0x382c9(%rip)        # 63180 <glad_glVertexArrayAttribIFormat>
   2aeb7:	48 8b 45 f8          	mov    -0x8(%rbp),%rax
   2aebb:	48 8d 3d fe c8 00 00 	lea    0xc8fe(%rip),%rdi        # 377c0 <_IO_stdin_used+0xa7c0>
   2aec2:	ff d0                	callq  *%rax
   2aec4:	48 89 05 f5 82 03 00 	mov    %rax,0x382f5(%rip)        # 631c0 <glad_glVertexArrayAttribLFormat>
   2aecb:	48 8b 45 f8          	mov    -0x8(%rbp),%rax
   2aecf:	48 8d 3d 2a c9 00 00 	lea    0xc92a(%rip),%rdi        # 37800 <_IO_stdin_used+0xa800>
   2aed6:	ff d0                	callq  *%rax
   2aed8:	48 89 05 21 83 03 00 	mov    %rax,0x38321(%rip)        # 63200 <glad_glVertexArrayBindingDivisor>
   2aedf:	48 8b 45 f8          	mov    -0x8(%rbp),%rax
   2aee3:	48 8d 3d 56 c9 00 00 	lea    0xc956(%rip),%rdi        # 37840 <_IO_stdin_used+0xa840>
   2aeea:	ff d0                	callq  *%rax
   2aeec:	48 89 05 4d 38 03 00 	mov    %rax,0x3384d(%rip)        # 5e740 <glad_glGetVertexArrayiv>
   2aef3:	48 8b 45 f8          	mov    -0x8(%rbp),%rax
   2aef7:	48 8d 3d 82 c9 00 00 	lea    0xc982(%rip),%rdi        # 37880 <_IO_stdin_used+0xa880>
   2aefe:	ff d0                	callq  *%rax
   2af00:	48 89 05 f9 37 03 00 	mov    %rax,0x337f9(%rip)        # 5e700 <glad_glGetVertexArrayIndexediv>
   2af07:	48 8b 45 f8          	mov    -0x8(%rbp),%rax
   2af0b:	48 8d 3d ae c9 00 00 	lea    0xc9ae(%rip),%rdi        # 378c0 <_IO_stdin_used+0xa8c0>
   2af12:	ff d0                	callq  *%rax
   2af14:	48 89 05 a5 37 03 00 	mov    %rax,0x337a5(%rip)        # 5e6c0 <glad_glGetVertexArrayIndexed64iv>
   2af1b:	48 8b 45 f8          	mov    -0x8(%rbp),%rax
   2af1f:	48 8d 3d da c9 00 00 	lea    0xc9da(%rip),%rdi        # 37900 <_IO_stdin_used+0xa900>
   2af26:	ff d0                	callq  *%rax
   2af28:	48 89 05 11 06 03 00 	mov    %rax,0x30611(%rip)        # 5b540 <glad_glCreateSamplers>
   2af2f:	48 8b 45 f8          	mov    -0x8(%rbp),%rax
   2af33:	48 8d 3d 06 ca 00 00 	lea    0xca06(%rip),%rdi        # 37940 <_IO_stdin_used+0xa940>
   2af3a:	ff d0                	callq  *%rax
   2af3c:	48 89 05 3d 05 03 00 	mov    %rax,0x3053d(%rip)        # 5b480 <glad_glCreateProgramPipelines>
   2af43:	48 8b 45 f8          	mov    -0x8(%rbp),%rax
   2af47:	48 8d 3d 32 ca 00 00 	lea    0xca32(%rip),%rdi        # 37980 <_IO_stdin_used+0xa980>
   2af4e:	ff d0                	callq  *%rax
   2af50:	48 89 05 69 05 03 00 	mov    %rax,0x30569(%rip)        # 5b4c0 <glad_glCreateQueries>
   2af57:	48 8b 45 f8          	mov    -0x8(%rbp),%rax
   2af5b:	48 8d 3d 5e ca 00 00 	lea    0xca5e(%rip),%rdi        # 379c0 <_IO_stdin_used+0xa9c0>
   2af62:	ff d0                	callq  *%rax
   2af64:	48 89 05 95 2a 03 00 	mov    %rax,0x32a95(%rip)        # 5da00 <glad_glGetQueryBufferObjecti64v>
   2af6b:	48 8b 45 f8          	mov    -0x8(%rbp),%rax
   2af6f:	48 8d 3d 8a ca 00 00 	lea    0xca8a(%rip),%rdi        # 37a00 <_IO_stdin_used+0xaa00>
   2af76:	ff d0                	callq  *%rax
   2af78:	48 89 05 c1 2a 03 00 	mov    %rax,0x32ac1(%rip)        # 5da40 <glad_glGetQueryBufferObjectiv>
   2af7f:	48 8b 45 f8          	mov    -0x8(%rbp),%rax
   2af83:	48 8d 3d b6 ca 00 00 	lea    0xcab6(%rip),%rdi        # 37a40 <_IO_stdin_used+0xaa40>
   2af8a:	ff d0                	callq  *%rax
   2af8c:	48 89 05 ed 2a 03 00 	mov    %rax,0x32aed(%rip)        # 5da80 <glad_glGetQueryBufferObjectui64v>
   2af93:	48 8b 45 f8          	mov    -0x8(%rbp),%rax
   2af97:	48 8d 3d e2 ca 00 00 	lea    0xcae2(%rip),%rdi        # 37a80 <_IO_stdin_used+0xaa80>
   2af9e:	ff d0                	callq  *%rax
   2afa0:	48 89 05 19 2b 03 00 	mov    %rax,0x32b19(%rip)        # 5dac0 <glad_glGetQueryBufferObjectuiv>
   2afa7:	48 8b 45 f8          	mov    -0x8(%rbp),%rax
   2afab:	48 8d 3d 0e cb 00 00 	lea    0xcb0e(%rip),%rdi        # 37ac0 <_IO_stdin_used+0xaac0>
   2afb2:	ff d0                	callq  *%rax
   2afb4:	48 89 05 c5 45 03 00 	mov    %rax,0x345c5(%rip)        # 5f580 <glad_glMemoryBarrierByRegion>
   2afbb:	48 8b 45 f8          	mov    -0x8(%rbp),%rax
   2afbf:	48 8d 3d 3a cb 00 00 	lea    0xcb3a(%rip),%rdi        # 37b00 <_IO_stdin_used+0xab00>
   2afc6:	ff d0                	callq  *%rax
   2afc8:	48 89 05 b1 33 03 00 	mov    %rax,0x333b1(%rip)        # 5e380 <glad_glGetTextureSubImage>
   2afcf:	48 8b 45 f8          	mov    -0x8(%rbp),%rax
   2afd3:	48 8d 3d 66 cb 00 00 	lea    0xcb66(%rip),%rdi        # 37b40 <_IO_stdin_used+0xab40>
   2afda:	ff d0                	callq  *%rax
   2afdc:	48 89 05 dd 1f 03 00 	mov    %rax,0x31fdd(%rip)        # 5cfc0 <glad_glGetCompressedTextureSubImage>
   2afe3:	48 8b 45 f8          	mov    -0x8(%rbp),%rax
   2afe7:	48 8d 3d 92 cb 00 00 	lea    0xcb92(%rip),%rdi        # 37b80 <_IO_stdin_used+0xab80>
   2afee:	ff d0                	callq  *%rax
   2aff0:	48 89 05 89 22 03 00 	mov    %rax,0x32289(%rip)        # 5d280 <glad_glGetGraphicsResetStatus>
   2aff7:	48 8b 45 f8          	mov    -0x8(%rbp),%rax
   2affb:	48 8d 3d be cb 00 00 	lea    0xcbbe(%rip),%rdi        # 37bc0 <_IO_stdin_used+0xabc0>
   2b002:	ff d0                	callq  *%rax
   2b004:	48 89 05 75 39 03 00 	mov    %rax,0x33975(%rip)        # 5e980 <glad_glGetnCompressedTexImage>
   2b00b:	48 8b 45 f8          	mov    -0x8(%rbp),%rax
   2b00f:	48 8d 3d ea cb 00 00 	lea    0xcbea(%rip),%rdi        # 37c00 <_IO_stdin_used+0xac00>
   2b016:	ff d0                	callq  *%rax
   2b018:	48 89 05 61 3c 03 00 	mov    %rax,0x33c61(%rip)        # 5ec80 <glad_glGetnTexImage>
   2b01f:	48 8b 45 f8          	mov    -0x8(%rbp),%rax
   2b023:	48 8d 3d 16 cc 00 00 	lea    0xcc16(%rip),%rdi        # 37c40 <_IO_stdin_used+0xac40>
   2b02a:	ff d0                	callq  *%rax
   2b02c:	48 89 05 8d 3c 03 00 	mov    %rax,0x33c8d(%rip)        # 5ecc0 <glad_glGetnUniformdv>
   2b033:	48 8b 45 f8          	mov    -0x8(%rbp),%rax
   2b037:	48 8d 3d 42 cc 00 00 	lea    0xcc42(%rip),%rdi        # 37c80 <_IO_stdin_used+0xac80>
   2b03e:	ff d0                	callq  *%rax
   2b040:	48 89 05 b9 3c 03 00 	mov    %rax,0x33cb9(%rip)        # 5ed00 <glad_glGetnUniformfv>
   2b047:	48 8b 45 f8          	mov    -0x8(%rbp),%rax
   2b04b:	48 8d 3d 6e cc 00 00 	lea    0xcc6e(%rip),%rdi        # 37cc0 <_IO_stdin_used+0xacc0>
   2b052:	ff d0                	callq  *%rax
   2b054:	48 89 05 e5 3c 03 00 	mov    %rax,0x33ce5(%rip)        # 5ed40 <glad_glGetnUniformiv>
   2b05b:	48 8b 45 f8          	mov    -0x8(%rbp),%rax
   2b05f:	48 8d 3d 9a cc 00 00 	lea    0xcc9a(%rip),%rdi        # 37d00 <_IO_stdin_used+0xad00>
   2b066:	ff d0                	callq  *%rax
   2b068:	48 89 05 11 3d 03 00 	mov    %rax,0x33d11(%rip)        # 5ed80 <glad_glGetnUniformuiv>
   2b06f:	48 8b 45 f8          	mov    -0x8(%rbp),%rax
   2b073:	48 8d 3d c6 cc 00 00 	lea    0xccc6(%rip),%rdi        # 37d40 <_IO_stdin_used+0xad40>
   2b07a:	ff d0                	callq  *%rax
   2b07c:	48 89 05 7d 5e 03 00 	mov    %rax,0x35e7d(%rip)        # 60f00 <glad_glReadnPixels>
   2b083:	48 8b 45 f8          	mov    -0x8(%rbp),%rax
   2b087:	48 8d 3d f2 cc 00 00 	lea    0xccf2(%rip),%rdi        # 37d80 <_IO_stdin_used+0xad80>
   2b08e:	ff d0                	callq  *%rax
   2b090:	48 89 05 a9 39 03 00 	mov    %rax,0x339a9(%rip)        # 5ea40 <glad_glGetnMapdv>
   2b097:	48 8b 45 f8          	mov    -0x8(%rbp),%rax
   2b09b:	48 8d 3d 1e cd 00 00 	lea    0xcd1e(%rip),%rdi        # 37dc0 <_IO_stdin_used+0xadc0>
   2b0a2:	ff d0                	callq  *%rax
   2b0a4:	48 89 05 d5 39 03 00 	mov    %rax,0x339d5(%rip)        # 5ea80 <glad_glGetnMapfv>
   2b0ab:	48 8b 45 f8          	mov    -0x8(%rbp),%rax
   2b0af:	48 8d 3d 4a cd 00 00 	lea    0xcd4a(%rip),%rdi        # 37e00 <_IO_stdin_used+0xae00>
   2b0b6:	ff d0                	callq  *%rax
   2b0b8:	48 89 05 01 3a 03 00 	mov    %rax,0x33a01(%rip)        # 5eac0 <glad_glGetnMapiv>
   2b0bf:	48 8b 45 f8          	mov    -0x8(%rbp),%rax
   2b0c3:	48 8d 3d 76 cd 00 00 	lea    0xcd76(%rip),%rdi        # 37e40 <_IO_stdin_used+0xae40>
   2b0ca:	ff d0                	callq  *%rax
   2b0cc:	48 89 05 6d 3a 03 00 	mov    %rax,0x33a6d(%rip)        # 5eb40 <glad_glGetnPixelMapfv>
   2b0d3:	48 8b 45 f8          	mov    -0x8(%rbp),%rax
   2b0d7:	48 8d 3d a2 cd 00 00 	lea    0xcda2(%rip),%rdi        # 37e80 <_IO_stdin_used+0xae80>
   2b0de:	ff d0                	callq  *%rax
   2b0e0:	48 89 05 99 3a 03 00 	mov    %rax,0x33a99(%rip)        # 5eb80 <glad_glGetnPixelMapuiv>
   2b0e7:	48 8b 45 f8          	mov    -0x8(%rbp),%rax
   2b0eb:	48 8d 3d ce cd 00 00 	lea    0xcdce(%rip),%rdi        # 37ec0 <_IO_stdin_used+0xaec0>
   2b0f2:	ff d0                	callq  *%rax
   2b0f4:	48 89 05 c5 3a 03 00 	mov    %rax,0x33ac5(%rip)        # 5ebc0 <glad_glGetnPixelMapusv>
   2b0fb:	48 8b 45 f8          	mov    -0x8(%rbp),%rax
   2b0ff:	48 8d 3d fa cd 00 00 	lea    0xcdfa(%rip),%rdi        # 37f00 <_IO_stdin_used+0xaf00>
   2b106:	ff d0                	callq  *%rax
   2b108:	48 89 05 f1 3a 03 00 	mov    %rax,0x33af1(%rip)        # 5ec00 <glad_glGetnPolygonStipple>
   2b10f:	48 8b 45 f8          	mov    -0x8(%rbp),%rax
   2b113:	48 8d 3d 26 ce 00 00 	lea    0xce26(%rip),%rdi        # 37f40 <_IO_stdin_used+0xaf40>
   2b11a:	ff d0                	callq  *%rax
   2b11c:	48 89 05 1d 38 03 00 	mov    %rax,0x3381d(%rip)        # 5e940 <glad_glGetnColorTable>
   2b123:	48 8b 45 f8          	mov    -0x8(%rbp),%rax
   2b127:	48 8d 3d 52 ce 00 00 	lea    0xce52(%rip),%rdi        # 37f80 <_IO_stdin_used+0xaf80>
   2b12e:	ff d0                	callq  *%rax
   2b130:	48 89 05 89 38 03 00 	mov    %rax,0x33889(%rip)        # 5e9c0 <glad_glGetnConvolutionFilter>
   2b137:	48 8b 45 f8          	mov    -0x8(%rbp),%rax
   2b13b:	48 8d 3d 7e ce 00 00 	lea    0xce7e(%rip),%rdi        # 37fc0 <_IO_stdin_used+0xafc0>
   2b142:	ff d0                	callq  *%rax
   2b144:	48 89 05 f5 3a 03 00 	mov    %rax,0x33af5(%rip)        # 5ec40 <glad_glGetnSeparableFilter>
   2b14b:	48 8b 45 f8          	mov    -0x8(%rbp),%rax
   2b14f:	48 8d 3d aa ce 00 00 	lea    0xceaa(%rip),%rdi        # 38000 <_IO_stdin_used+0xb000>
   2b156:	ff d0                	callq  *%rax
   2b158:	48 89 05 a1 38 03 00 	mov    %rax,0x338a1(%rip)        # 5ea00 <glad_glGetnHistogram>
   2b15f:	48 8b 45 f8          	mov    -0x8(%rbp),%rax
   2b163:	48 8d 3d d6 ce 00 00 	lea    0xced6(%rip),%rdi        # 38040 <_IO_stdin_used+0xb040>
   2b16a:	ff d0                	callq  *%rax
   2b16c:	48 89 05 8d 39 03 00 	mov    %rax,0x3398d(%rip)        # 5eb00 <glad_glGetnMinmax>
   2b173:	48 8b 45 f8          	mov    -0x8(%rbp),%rax
   2b177:	48 8d 3d 02 cf 00 00 	lea    0xcf02(%rip),%rdi        # 38080 <_IO_stdin_used+0xb080>
   2b17e:	ff d0                	callq  *%rax
   2b180:	48 89 05 b9 6b 03 00 	mov    %rax,0x36bb9(%rip)        # 61d40 <glad_glTextureBarrier>
   2b187:	eb 01                	jmp    2b18a <_ZL19load_GL_VERSION_4_5PFPvPKcE+0x9a5>
   2b189:	90                   	nop
   2b18a:	c9                   	leaveq 
   2b18b:	c3                   	retq   

000000000002b18c <_ZL17find_extensionsGLv>:
   2b18c:	55                   	push   %rbp
   2b18d:	48 89 e5             	mov    %rsp,%rbp
   2b190:	e8 6c c3 ff ff       	callq  27501 <_ZL8get_extsv>
   2b195:	85 c0                	test   %eax,%eax
   2b197:	0f 94 c0             	sete   %al
   2b19a:	84 c0                	test   %al,%al
   2b19c:	74 07                	je     2b1a5 <_ZL17find_extensionsGLv+0x19>
   2b19e:	b8 00 00 00 00       	mov    $0x0,%eax
   2b1a3:	eb 0a                	jmp    2b1af <_ZL17find_extensionsGLv+0x23>
   2b1a5:	e8 99 c4 ff ff       	callq  27643 <_ZL9free_extsv>
   2b1aa:	b8 01 00 00 00       	mov    $0x1,%eax
   2b1af:	5d                   	pop    %rbp
   2b1b0:	c3                   	retq   

000000000002b1b1 <_ZL11find_coreGLv>:
   2b1b1:	55                   	push   %rbp
   2b1b2:	48 89 e5             	mov    %rsp,%rbp
   2b1b5:	41 56                	push   %r14
   2b1b7:	41 55                	push   %r13
   2b1b9:	41 54                	push   %r12
   2b1bb:	53                   	push   %rbx
   2b1bc:	48 81 ec 20 01 00 00 	sub    $0x120,%rsp
   2b1c3:	4c 8d ad e0 fe ff ff 	lea    -0x120(%rbp),%r13
   2b1ca:	4d 89 ee             	mov    %r13,%r14
   2b1cd:	83 3d ac e2 02 00 00 	cmpl   $0x0,0x2e2ac(%rip)        # 59480 <__asan_option_detect_stack_use_after_return>
   2b1d4:	74 12                	je     2b1e8 <_ZL11find_coreGLv+0x37>
   2b1d6:	bf e0 00 00 00       	mov    $0xe0,%edi
   2b1db:	e8 20 c0 ff ff       	callq  27200 <__asan_stack_malloc_2@plt>
   2b1e0:	48 85 c0             	test   %rax,%rax
   2b1e3:	74 03                	je     2b1e8 <_ZL11find_coreGLv+0x37>
   2b1e5:	49 89 c5             	mov    %rax,%r13
   2b1e8:	49 8d 85 00 01 00 00 	lea    0x100(%r13),%rax
   2b1ef:	48 89 c3             	mov    %rax,%rbx
   2b1f2:	49 c7 45 00 b3 8a b5 	movq   $0x41b58ab3,0x0(%r13)
   2b1f9:	41 
   2b1fa:	48 8d 05 bf ce 00 00 	lea    0xcebf(%rip),%rax        # 380c0 <_IO_stdin_used+0xb0c0>
   2b201:	49 89 45 08          	mov    %rax,0x8(%r13)
   2b205:	48 8d 05 a5 ff ff ff 	lea    -0x5b(%rip),%rax        # 2b1b1 <_ZL11find_coreGLv>
   2b20c:	49 89 45 10          	mov    %rax,0x10(%r13)
   2b210:	4d 89 ec             	mov    %r13,%r12
   2b213:	49 c1 ec 03          	shr    $0x3,%r12
   2b217:	41 c7 84 24 00 80 ff 	movl   $0xf1f1f1f1,0x7fff8000(%r12)
   2b21e:	7f f1 f1 f1 f1 
   2b223:	41 c7 84 24 04 80 ff 	movl   $0xf2f2f204,0x7fff8004(%r12)
   2b22a:	7f 04 f2 f2 f2 
   2b22f:	41 c7 84 24 08 80 ff 	movl   $0xf2f2f2f2,0x7fff8008(%r12)
   2b236:	7f f2 f2 f2 f2 
   2b23b:	41 c7 84 24 0c 80 ff 	movl   $0xf2f2f204,0x7fff800c(%r12)
   2b242:	7f 04 f2 f2 f2 
   2b247:	41 c7 84 24 10 80 ff 	movl   $0xf2f2f2f2,0x7fff8010(%r12)
   2b24e:	7f f2 f2 f2 f2 
   2b253:	41 c7 84 24 18 80 ff 	movl   $0xf3f3f3f3,0x7fff8018(%r12)
   2b25a:	7f f3 f3 f3 f3 
   2b25f:	64 48 8b 04 25 28 00 	mov    %fs:0x28,%rax
   2b266:	00 00 
   2b268:	48 89 45 d8          	mov    %rax,-0x28(%rbp)
   2b26c:	31 c0                	xor    %eax,%eax
   2b26e:	48 8d 43 a0          	lea    -0x60(%rbx),%rax
   2b272:	48 89 c2             	mov    %rax,%rdx
   2b275:	48 c1 ea 03          	shr    $0x3,%rdx
   2b279:	48 81 c2 00 80 ff 7f 	add    $0x7fff8000,%rdx
   2b280:	0f b6 12             	movzbl (%rdx),%edx
   2b283:	84 d2                	test   %dl,%dl
   2b285:	74 08                	je     2b28f <_ZL11find_coreGLv+0xde>
   2b287:	48 89 c7             	mov    %rax,%rdi
   2b28a:	e8 61 be ff ff       	callq  270f0 <__asan_report_store8@plt>
   2b28f:	48 8d 05 6a ce 00 00 	lea    0xce6a(%rip),%rax        # 38100 <_IO_stdin_used+0xb100>
   2b296:	48 89 43 a0          	mov    %rax,-0x60(%rbx)
   2b29a:	48 8d 43 a0          	lea    -0x60(%rbx),%rax
   2b29e:	48 83 c0 08          	add    $0x8,%rax
   2b2a2:	48 89 c2             	mov    %rax,%rdx
   2b2a5:	48 c1 ea 03          	shr    $0x3,%rdx
   2b2a9:	48 81 c2 00 80 ff 7f 	add    $0x7fff8000,%rdx
   2b2b0:	0f b6 12             	movzbl (%rdx),%edx
   2b2b3:	84 d2                	test   %dl,%dl
   2b2b5:	74 08                	je     2b2bf <_ZL11find_coreGLv+0x10e>
   2b2b7:	48 89 c7             	mov    %rax,%rdi
   2b2ba:	e8 31 be ff ff       	callq  270f0 <__asan_report_store8@plt>
   2b2bf:	48 8d 05 7a ce 00 00 	lea    0xce7a(%rip),%rax        # 38140 <_IO_stdin_used+0xb140>
   2b2c6:	48 89 43 a8          	mov    %rax,-0x58(%rbx)
   2b2ca:	48 8d 43 a0          	lea    -0x60(%rbx),%rax
   2b2ce:	48 83 c0 10          	add    $0x10,%rax
   2b2d2:	48 89 c2             	mov    %rax,%rdx
   2b2d5:	48 c1 ea 03          	shr    $0x3,%rdx
   2b2d9:	48 81 c2 00 80 ff 7f 	add    $0x7fff8000,%rdx
   2b2e0:	0f b6 12             	movzbl (%rdx),%edx
   2b2e3:	84 d2                	test   %dl,%dl
   2b2e5:	74 08                	je     2b2ef <_ZL11find_coreGLv+0x13e>
   2b2e7:	48 89 c7             	mov    %rax,%rdi
   2b2ea:	e8 01 be ff ff       	callq  270f0 <__asan_report_store8@plt>
   2b2ef:	48 8d 05 8a ce 00 00 	lea    0xce8a(%rip),%rax        # 38180 <_IO_stdin_used+0xb180>
   2b2f6:	48 89 43 b0          	mov    %rax,-0x50(%rbx)
   2b2fa:	48 8d 43 a0          	lea    -0x60(%rbx),%rax
   2b2fe:	48 83 c0 18          	add    $0x18,%rax
   2b302:	48 89 c2             	mov    %rax,%rdx
   2b305:	48 c1 ea 03          	shr    $0x3,%rdx
   2b309:	48 81 c2 00 80 ff 7f 	add    $0x7fff8000,%rdx
   2b310:	0f b6 12             	movzbl (%rdx),%edx
   2b313:	84 d2                	test   %dl,%dl
   2b315:	74 08                	je     2b31f <_ZL11find_coreGLv+0x16e>
   2b317:	48 89 c7             	mov    %rax,%rdi
   2b31a:	e8 d1 bd ff ff       	callq  270f0 <__asan_report_store8@plt>
   2b31f:	48 c7 43 b8 00 00 00 	movq   $0x0,-0x48(%rbx)
   2b326:	00 
   2b327:	48 8b 05 92 2b 03 00 	mov    0x32b92(%rip),%rax        # 5dec0 <glad_glGetString>
   2b32e:	bf 02 1f 00 00       	mov    $0x1f02,%edi
   2b333:	ff d0                	callq  *%rax
   2b335:	48 89 85 d0 fe ff ff 	mov    %rax,-0x130(%rbp)
   2b33c:	48 83 bd d0 fe ff ff 	cmpq   $0x0,-0x130(%rbp)
   2b343:	00 
   2b344:	75 0a                	jne    2b350 <_ZL11find_coreGLv+0x19f>
   2b346:	b8 00 00 00 00       	mov    $0x0,%eax
   2b34b:	e9 92 0f 00 00       	jmpq   2c2e2 <_ZL11find_coreGLv+0x1131>
   2b350:	c7 85 cc fe ff ff 00 	movl   $0x0,-0x134(%rbp)
   2b357:	00 00 00 
   2b35a:	48 8d 43 a0          	lea    -0x60(%rbx),%rax
   2b35e:	8b 95 cc fe ff ff    	mov    -0x134(%rbp),%edx
   2b364:	48 63 d2             	movslq %edx,%rdx
   2b367:	48 c1 e2 03          	shl    $0x3,%rdx
   2b36b:	48 01 d0             	add    %rdx,%rax
   2b36e:	48 89 c2             	mov    %rax,%rdx
   2b371:	48 c1 ea 03          	shr    $0x3,%rdx
   2b375:	48 81 c2 00 80 ff 7f 	add    $0x7fff8000,%rdx
   2b37c:	0f b6 12             	movzbl (%rdx),%edx
   2b37f:	84 d2                	test   %dl,%dl
   2b381:	74 08                	je     2b38b <_ZL11find_coreGLv+0x1da>
   2b383:	48 89 c7             	mov    %rax,%rdi
   2b386:	e8 45 be ff ff       	callq  271d0 <__asan_report_load8@plt>
   2b38b:	8b 85 cc fe ff ff    	mov    -0x134(%rbp),%eax
   2b391:	48 98                	cltq   
   2b393:	48 8b 44 c3 a0       	mov    -0x60(%rbx,%rax,8),%rax
   2b398:	48 85 c0             	test   %rax,%rax
   2b39b:	74 62                	je     2b3ff <_ZL11find_coreGLv+0x24e>
   2b39d:	8b 85 cc fe ff ff    	mov    -0x134(%rbp),%eax
   2b3a3:	48 98                	cltq   
   2b3a5:	48 8b 44 c3 a0       	mov    -0x60(%rbx,%rax,8),%rax
   2b3aa:	48 89 c7             	mov    %rax,%rdi
   2b3ad:	e8 8e bc ff ff       	callq  27040 <strlen@plt>
   2b3b2:	48 89 85 d8 fe ff ff 	mov    %rax,-0x128(%rbp)
   2b3b9:	8b 85 cc fe ff ff    	mov    -0x134(%rbp),%eax
   2b3bf:	48 98                	cltq   
   2b3c1:	48 8b 4c c3 a0       	mov    -0x60(%rbx,%rax,8),%rcx
   2b3c6:	48 8b 95 d8 fe ff ff 	mov    -0x128(%rbp),%rdx
   2b3cd:	48 8b 85 d0 fe ff ff 	mov    -0x130(%rbp),%rax
   2b3d4:	48 89 ce             	mov    %rcx,%rsi
   2b3d7:	48 89 c7             	mov    %rax,%rdi
   2b3da:	e8 51 be ff ff       	callq  27230 <strncmp@plt>
   2b3df:	85 c0                	test   %eax,%eax
   2b3e1:	75 10                	jne    2b3f3 <_ZL11find_coreGLv+0x242>
   2b3e3:	48 8b 85 d8 fe ff ff 	mov    -0x128(%rbp),%rax
   2b3ea:	48 01 85 d0 fe ff ff 	add    %rax,-0x130(%rbp)
   2b3f1:	eb 0c                	jmp    2b3ff <_ZL11find_coreGLv+0x24e>
   2b3f3:	83 85 cc fe ff ff 01 	addl   $0x1,-0x134(%rbp)
   2b3fa:	e9 5b ff ff ff       	jmpq   2b35a <_ZL11find_coreGLv+0x1a9>
   2b3ff:	48 8d 8b 60 ff ff ff 	lea    -0xa0(%rbx),%rcx
   2b406:	48 8d 93 20 ff ff ff 	lea    -0xe0(%rbx),%rdx
   2b40d:	48 8b 85 d0 fe ff ff 	mov    -0x130(%rbp),%rax
   2b414:	48 8d 35 a5 cd 00 00 	lea    0xcda5(%rip),%rsi        # 381c0 <_IO_stdin_used+0xb1c0>
   2b41b:	48 89 c7             	mov    %rax,%rdi
   2b41e:	b8 00 00 00 00       	mov    $0x0,%eax
   2b423:	e8 08 bc ff ff       	callq  27030 <__isoc99_sscanf@plt>
   2b428:	48 8d 83 20 ff ff ff 	lea    -0xe0(%rbx),%rax
   2b42f:	48 89 c2             	mov    %rax,%rdx
   2b432:	48 89 d0             	mov    %rdx,%rax
   2b435:	48 c1 e8 03          	shr    $0x3,%rax
   2b439:	48 05 00 80 ff 7f    	add    $0x7fff8000,%rax
   2b43f:	0f b6 00             	movzbl (%rax),%eax
   2b442:	84 c0                	test   %al,%al
   2b444:	0f 95 c1             	setne  %cl
   2b447:	3c 03                	cmp    $0x3,%al
   2b449:	0f 9e c0             	setle  %al
   2b44c:	21 c8                	and    %ecx,%eax
   2b44e:	84 c0                	test   %al,%al
   2b450:	74 08                	je     2b45a <_ZL11find_coreGLv+0x2a9>
   2b452:	48 89 d7             	mov    %rdx,%rdi
   2b455:	e8 16 bc ff ff       	callq  27070 <__asan_report_load4@plt>
   2b45a:	8b 83 20 ff ff ff    	mov    -0xe0(%rbx),%eax
   2b460:	89 05 da e1 02 00    	mov    %eax,0x2e1da(%rip)        # 59640 <GLVersion>
   2b466:	48 8d 83 60 ff ff ff 	lea    -0xa0(%rbx),%rax
   2b46d:	48 89 c2             	mov    %rax,%rdx
   2b470:	48 89 d0             	mov    %rdx,%rax
   2b473:	48 c1 e8 03          	shr    $0x3,%rax
   2b477:	48 05 00 80 ff 7f    	add    $0x7fff8000,%rax
   2b47d:	0f b6 00             	movzbl (%rax),%eax
   2b480:	84 c0                	test   %al,%al
   2b482:	0f 95 c1             	setne  %cl
   2b485:	3c 03                	cmp    $0x3,%al
   2b487:	0f 9e c0             	setle  %al
   2b48a:	21 c8                	and    %ecx,%eax
   2b48c:	84 c0                	test   %al,%al
   2b48e:	74 08                	je     2b498 <_ZL11find_coreGLv+0x2e7>
   2b490:	48 89 d7             	mov    %rdx,%rdi
   2b493:	e8 d8 bb ff ff       	callq  27070 <__asan_report_load4@plt>
   2b498:	8b 83 60 ff ff ff    	mov    -0xa0(%rbx),%eax
   2b49e:	89 05 a0 e1 02 00    	mov    %eax,0x2e1a0(%rip)        # 59644 <GLVersion+0x4>
   2b4a4:	8b 83 20 ff ff ff    	mov    -0xe0(%rbx),%eax
   2b4aa:	89 05 d0 e1 02 00    	mov    %eax,0x2e1d0(%rip)        # 59680 <_ZL16max_loaded_major>
   2b4b0:	8b 83 60 ff ff ff    	mov    -0xa0(%rbx),%eax
   2b4b6:	89 05 04 e2 02 00    	mov    %eax,0x2e204(%rip)        # 596c0 <_ZL16max_loaded_minor>
   2b4bc:	8b 83 20 ff ff ff    	mov    -0xe0(%rbx),%eax
   2b4c2:	83 f8 01             	cmp    $0x1,%eax
   2b4c5:	75 0a                	jne    2b4d1 <_ZL11find_coreGLv+0x320>
   2b4c7:	8b 83 60 ff ff ff    	mov    -0xa0(%rbx),%eax
   2b4cd:	85 c0                	test   %eax,%eax
   2b4cf:	79 3d                	jns    2b50e <_ZL11find_coreGLv+0x35d>
   2b4d1:	48 8d 83 20 ff ff ff 	lea    -0xe0(%rbx),%rax
   2b4d8:	48 89 c2             	mov    %rax,%rdx
   2b4db:	48 89 d0             	mov    %rdx,%rax
   2b4de:	48 c1 e8 03          	shr    $0x3,%rax
   2b4e2:	48 05 00 80 ff 7f    	add    $0x7fff8000,%rax
   2b4e8:	0f b6 00             	movzbl (%rax),%eax
   2b4eb:	84 c0                	test   %al,%al
   2b4ed:	0f 95 c1             	setne  %cl
   2b4f0:	3c 03                	cmp    $0x3,%al
   2b4f2:	0f 9e c0             	setle  %al
   2b4f5:	21 c8                	and    %ecx,%eax
   2b4f7:	84 c0                	test   %al,%al
   2b4f9:	74 08                	je     2b503 <_ZL11find_coreGLv+0x352>
   2b4fb:	48 89 d7             	mov    %rdx,%rdi
   2b4fe:	e8 6d bb ff ff       	callq  27070 <__asan_report_load4@plt>
   2b503:	8b 83 20 ff ff ff    	mov    -0xe0(%rbx),%eax
   2b509:	83 f8 01             	cmp    $0x1,%eax
   2b50c:	7e 07                	jle    2b515 <_ZL11find_coreGLv+0x364>
   2b50e:	b8 01 00 00 00       	mov    $0x1,%eax
   2b513:	eb 05                	jmp    2b51a <_ZL11find_coreGLv+0x369>
   2b515:	b8 00 00 00 00       	mov    $0x0,%eax
   2b51a:	0f b6 c0             	movzbl %al,%eax
   2b51d:	89 05 9d e2 02 00    	mov    %eax,0x2e29d(%rip)        # 597c0 <GLAD_GL_VERSION_1_0>
   2b523:	48 8d 83 20 ff ff ff 	lea    -0xe0(%rbx),%rax
   2b52a:	48 89 c2             	mov    %rax,%rdx
   2b52d:	48 89 d0             	mov    %rdx,%rax
   2b530:	48 c1 e8 03          	shr    $0x3,%rax
   2b534:	48 05 00 80 ff 7f    	add    $0x7fff8000,%rax
   2b53a:	0f b6 00             	movzbl (%rax),%eax
   2b53d:	84 c0                	test   %al,%al
   2b53f:	0f 95 c1             	setne  %cl
   2b542:	3c 03                	cmp    $0x3,%al
   2b544:	0f 9e c0             	setle  %al
   2b547:	21 c8                	and    %ecx,%eax
   2b549:	84 c0                	test   %al,%al
   2b54b:	74 08                	je     2b555 <_ZL11find_coreGLv+0x3a4>
   2b54d:	48 89 d7             	mov    %rdx,%rdi
   2b550:	e8 1b bb ff ff       	callq  27070 <__asan_report_load4@plt>
   2b555:	8b 83 20 ff ff ff    	mov    -0xe0(%rbx),%eax
   2b55b:	83 f8 01             	cmp    $0x1,%eax
   2b55e:	75 3c                	jne    2b59c <_ZL11find_coreGLv+0x3eb>
   2b560:	48 8d 83 60 ff ff ff 	lea    -0xa0(%rbx),%rax
   2b567:	48 89 c2             	mov    %rax,%rdx
   2b56a:	48 89 d0             	mov    %rdx,%rax
   2b56d:	48 c1 e8 03          	shr    $0x3,%rax
   2b571:	48 05 00 80 ff 7f    	add    $0x7fff8000,%rax
   2b577:	0f b6 00             	movzbl (%rax),%eax
   2b57a:	84 c0                	test   %al,%al
   2b57c:	0f 95 c1             	setne  %cl
   2b57f:	3c 03                	cmp    $0x3,%al
   2b581:	0f 9e c0             	setle  %al
   2b584:	21 c8                	and    %ecx,%eax
   2b586:	84 c0                	test   %al,%al
   2b588:	74 08                	je     2b592 <_ZL11find_coreGLv+0x3e1>
   2b58a:	48 89 d7             	mov    %rdx,%rdi
   2b58d:	e8 de ba ff ff       	callq  27070 <__asan_report_load4@plt>
   2b592:	8b 83 60 ff ff ff    	mov    -0xa0(%rbx),%eax
   2b598:	85 c0                	test   %eax,%eax
   2b59a:	7f 3d                	jg     2b5d9 <_ZL11find_coreGLv+0x428>
   2b59c:	48 8d 83 20 ff ff ff 	lea    -0xe0(%rbx),%rax
   2b5a3:	48 89 c2             	mov    %rax,%rdx
   2b5a6:	48 89 d0             	mov    %rdx,%rax
   2b5a9:	48 c1 e8 03          	shr    $0x3,%rax
   2b5ad:	48 05 00 80 ff 7f    	add    $0x7fff8000,%rax
   2b5b3:	0f b6 00             	movzbl (%rax),%eax
   2b5b6:	84 c0                	test   %al,%al
   2b5b8:	0f 95 c1             	setne  %cl
   2b5bb:	3c 03                	cmp    $0x3,%al
   2b5bd:	0f 9e c0             	setle  %al
   2b5c0:	21 c8                	and    %ecx,%eax
   2b5c2:	84 c0                	test   %al,%al
   2b5c4:	74 08                	je     2b5ce <_ZL11find_coreGLv+0x41d>
   2b5c6:	48 89 d7             	mov    %rdx,%rdi
   2b5c9:	e8 a2 ba ff ff       	callq  27070 <__asan_report_load4@plt>
   2b5ce:	8b 83 20 ff ff ff    	mov    -0xe0(%rbx),%eax
   2b5d4:	83 f8 01             	cmp    $0x1,%eax
   2b5d7:	7e 07                	jle    2b5e0 <_ZL11find_coreGLv+0x42f>
   2b5d9:	b8 01 00 00 00       	mov    $0x1,%eax
   2b5de:	eb 05                	jmp    2b5e5 <_ZL11find_coreGLv+0x434>
   2b5e0:	b8 00 00 00 00       	mov    $0x0,%eax
   2b5e5:	0f b6 c0             	movzbl %al,%eax
   2b5e8:	89 05 12 e2 02 00    	mov    %eax,0x2e212(%rip)        # 59800 <GLAD_GL_VERSION_1_1>
   2b5ee:	48 8d 83 20 ff ff ff 	lea    -0xe0(%rbx),%rax
   2b5f5:	48 89 c2             	mov    %rax,%rdx
   2b5f8:	48 89 d0             	mov    %rdx,%rax
   2b5fb:	48 c1 e8 03          	shr    $0x3,%rax
   2b5ff:	48 05 00 80 ff 7f    	add    $0x7fff8000,%rax
   2b605:	0f b6 00             	movzbl (%rax),%eax
   2b608:	84 c0                	test   %al,%al
   2b60a:	0f 95 c1             	setne  %cl
   2b60d:	3c 03                	cmp    $0x3,%al
   2b60f:	0f 9e c0             	setle  %al
   2b612:	21 c8                	and    %ecx,%eax
   2b614:	84 c0                	test   %al,%al
   2b616:	74 08                	je     2b620 <_ZL11find_coreGLv+0x46f>
   2b618:	48 89 d7             	mov    %rdx,%rdi
   2b61b:	e8 50 ba ff ff       	callq  27070 <__asan_report_load4@plt>
   2b620:	8b 83 20 ff ff ff    	mov    -0xe0(%rbx),%eax
   2b626:	83 f8 01             	cmp    $0x1,%eax
   2b629:	75 3d                	jne    2b668 <_ZL11find_coreGLv+0x4b7>
   2b62b:	48 8d 83 60 ff ff ff 	lea    -0xa0(%rbx),%rax
   2b632:	48 89 c2             	mov    %rax,%rdx
   2b635:	48 89 d0             	mov    %rdx,%rax
   2b638:	48 c1 e8 03          	shr    $0x3,%rax
   2b63c:	48 05 00 80 ff 7f    	add    $0x7fff8000,%rax
   2b642:	0f b6 00             	movzbl (%rax),%eax
   2b645:	84 c0                	test   %al,%al
   2b647:	0f 95 c1             	setne  %cl
   2b64a:	3c 03                	cmp    $0x3,%al
   2b64c:	0f 9e c0             	setle  %al
   2b64f:	21 c8                	and    %ecx,%eax
   2b651:	84 c0                	test   %al,%al
   2b653:	74 08                	je     2b65d <_ZL11find_coreGLv+0x4ac>
   2b655:	48 89 d7             	mov    %rdx,%rdi
   2b658:	e8 13 ba ff ff       	callq  27070 <__asan_report_load4@plt>
   2b65d:	8b 83 60 ff ff ff    	mov    -0xa0(%rbx),%eax
   2b663:	83 f8 01             	cmp    $0x1,%eax
   2b666:	7f 3d                	jg     2b6a5 <_ZL11find_coreGLv+0x4f4>
   2b668:	48 8d 83 20 ff ff ff 	lea    -0xe0(%rbx),%rax
   2b66f:	48 89 c2             	mov    %rax,%rdx
   2b672:	48 89 d0             	mov    %rdx,%rax
   2b675:	48 c1 e8 03          	shr    $0x3,%rax
   2b679:	48 05 00 80 ff 7f    	add    $0x7fff8000,%rax
   2b67f:	0f b6 00             	movzbl (%rax),%eax
   2b682:	84 c0                	test   %al,%al
   2b684:	0f 95 c1             	setne  %cl
   2b687:	3c 03                	cmp    $0x3,%al
   2b689:	0f 9e c0             	setle  %al
   2b68c:	21 c8                	and    %ecx,%eax
   2b68e:	84 c0                	test   %al,%al
   2b690:	74 08                	je     2b69a <_ZL11find_coreGLv+0x4e9>
   2b692:	48 89 d7             	mov    %rdx,%rdi
   2b695:	e8 d6 b9 ff ff       	callq  27070 <__asan_report_load4@plt>
   2b69a:	8b 83 20 ff ff ff    	mov    -0xe0(%rbx),%eax
   2b6a0:	83 f8 01             	cmp    $0x1,%eax
   2b6a3:	7e 07                	jle    2b6ac <_ZL11find_coreGLv+0x4fb>
   2b6a5:	b8 01 00 00 00       	mov    $0x1,%eax
   2b6aa:	eb 05                	jmp    2b6b1 <_ZL11find_coreGLv+0x500>
   2b6ac:	b8 00 00 00 00       	mov    $0x0,%eax
   2b6b1:	0f b6 c0             	movzbl %al,%eax
   2b6b4:	89 05 86 e1 02 00    	mov    %eax,0x2e186(%rip)        # 59840 <GLAD_GL_VERSION_1_2>
   2b6ba:	48 8d 83 20 ff ff ff 	lea    -0xe0(%rbx),%rax
   2b6c1:	48 89 c2             	mov    %rax,%rdx
   2b6c4:	48 89 d0             	mov    %rdx,%rax
   2b6c7:	48 c1 e8 03          	shr    $0x3,%rax
   2b6cb:	48 05 00 80 ff 7f    	add    $0x7fff8000,%rax
   2b6d1:	0f b6 00             	movzbl (%rax),%eax
   2b6d4:	84 c0                	test   %al,%al
   2b6d6:	0f 95 c1             	setne  %cl
   2b6d9:	3c 03                	cmp    $0x3,%al
   2b6db:	0f 9e c0             	setle  %al
   2b6de:	21 c8                	and    %ecx,%eax
   2b6e0:	84 c0                	test   %al,%al
   2b6e2:	74 08                	je     2b6ec <_ZL11find_coreGLv+0x53b>
   2b6e4:	48 89 d7             	mov    %rdx,%rdi
   2b6e7:	e8 84 b9 ff ff       	callq  27070 <__asan_report_load4@plt>
   2b6ec:	8b 83 20 ff ff ff    	mov    -0xe0(%rbx),%eax
   2b6f2:	83 f8 01             	cmp    $0x1,%eax
   2b6f5:	75 3d                	jne    2b734 <_ZL11find_coreGLv+0x583>
   2b6f7:	48 8d 83 60 ff ff ff 	lea    -0xa0(%rbx),%rax
   2b6fe:	48 89 c2             	mov    %rax,%rdx
   2b701:	48 89 d0             	mov    %rdx,%rax
   2b704:	48 c1 e8 03          	shr    $0x3,%rax
   2b708:	48 05 00 80 ff 7f    	add    $0x7fff8000,%rax
   2b70e:	0f b6 00             	movzbl (%rax),%eax
   2b711:	84 c0                	test   %al,%al
   2b713:	0f 95 c1             	setne  %cl
   2b716:	3c 03                	cmp    $0x3,%al
   2b718:	0f 9e c0             	setle  %al
   2b71b:	21 c8                	and    %ecx,%eax
   2b71d:	84 c0                	test   %al,%al
   2b71f:	74 08                	je     2b729 <_ZL11find_coreGLv+0x578>
   2b721:	48 89 d7             	mov    %rdx,%rdi
   2b724:	e8 47 b9 ff ff       	callq  27070 <__asan_report_load4@plt>
   2b729:	8b 83 60 ff ff ff    	mov    -0xa0(%rbx),%eax
   2b72f:	83 f8 02             	cmp    $0x2,%eax
   2b732:	7f 3d                	jg     2b771 <_ZL11find_coreGLv+0x5c0>
   2b734:	48 8d 83 20 ff ff ff 	lea    -0xe0(%rbx),%rax
   2b73b:	48 89 c2             	mov    %rax,%rdx
   2b73e:	48 89 d0             	mov    %rdx,%rax
   2b741:	48 c1 e8 03          	shr    $0x3,%rax
   2b745:	48 05 00 80 ff 7f    	add    $0x7fff8000,%rax
   2b74b:	0f b6 00             	movzbl (%rax),%eax
   2b74e:	84 c0                	test   %al,%al
   2b750:	0f 95 c1             	setne  %cl
   2b753:	3c 03                	cmp    $0x3,%al
   2b755:	0f 9e c0             	setle  %al
   2b758:	21 c8                	and    %ecx,%eax
   2b75a:	84 c0                	test   %al,%al
   2b75c:	74 08                	je     2b766 <_ZL11find_coreGLv+0x5b5>
   2b75e:	48 89 d7             	mov    %rdx,%rdi
   2b761:	e8 0a b9 ff ff       	callq  27070 <__asan_report_load4@plt>
   2b766:	8b 83 20 ff ff ff    	mov    -0xe0(%rbx),%eax
   2b76c:	83 f8 01             	cmp    $0x1,%eax
   2b76f:	7e 07                	jle    2b778 <_ZL11find_coreGLv+0x5c7>
   2b771:	b8 01 00 00 00       	mov    $0x1,%eax
   2b776:	eb 05                	jmp    2b77d <_ZL11find_coreGLv+0x5cc>
   2b778:	b8 00 00 00 00       	mov    $0x0,%eax
   2b77d:	0f b6 c0             	movzbl %al,%eax
   2b780:	89 05 fa e0 02 00    	mov    %eax,0x2e0fa(%rip)        # 59880 <GLAD_GL_VERSION_1_3>
   2b786:	48 8d 83 20 ff ff ff 	lea    -0xe0(%rbx),%rax
   2b78d:	48 89 c2             	mov    %rax,%rdx
   2b790:	48 89 d0             	mov    %rdx,%rax
   2b793:	48 c1 e8 03          	shr    $0x3,%rax
   2b797:	48 05 00 80 ff 7f    	add    $0x7fff8000,%rax
   2b79d:	0f b6 00             	movzbl (%rax),%eax
   2b7a0:	84 c0                	test   %al,%al
   2b7a2:	0f 95 c1             	setne  %cl
   2b7a5:	3c 03                	cmp    $0x3,%al
   2b7a7:	0f 9e c0             	setle  %al
   2b7aa:	21 c8                	and    %ecx,%eax
   2b7ac:	84 c0                	test   %al,%al
   2b7ae:	74 08                	je     2b7b8 <_ZL11find_coreGLv+0x607>
   2b7b0:	48 89 d7             	mov    %rdx,%rdi
   2b7b3:	e8 b8 b8 ff ff       	callq  27070 <__asan_report_load4@plt>
   2b7b8:	8b 83 20 ff ff ff    	mov    -0xe0(%rbx),%eax
   2b7be:	83 f8 01             	cmp    $0x1,%eax
   2b7c1:	75 3d                	jne    2b800 <_ZL11find_coreGLv+0x64f>
   2b7c3:	48 8d 83 60 ff ff ff 	lea    -0xa0(%rbx),%rax
   2b7ca:	48 89 c2             	mov    %rax,%rdx
   2b7cd:	48 89 d0             	mov    %rdx,%rax
   2b7d0:	48 c1 e8 03          	shr    $0x3,%rax
   2b7d4:	48 05 00 80 ff 7f    	add    $0x7fff8000,%rax
   2b7da:	0f b6 00             	movzbl (%rax),%eax
   2b7dd:	84 c0                	test   %al,%al
   2b7df:	0f 95 c1             	setne  %cl
   2b7e2:	3c 03                	cmp    $0x3,%al
   2b7e4:	0f 9e c0             	setle  %al
   2b7e7:	21 c8                	and    %ecx,%eax
   2b7e9:	84 c0                	test   %al,%al
   2b7eb:	74 08                	je     2b7f5 <_ZL11find_coreGLv+0x644>
   2b7ed:	48 89 d7             	mov    %rdx,%rdi
   2b7f0:	e8 7b b8 ff ff       	callq  27070 <__asan_report_load4@plt>
   2b7f5:	8b 83 60 ff ff ff    	mov    -0xa0(%rbx),%eax
   2b7fb:	83 f8 03             	cmp    $0x3,%eax
   2b7fe:	7f 3d                	jg     2b83d <_ZL11find_coreGLv+0x68c>
   2b800:	48 8d 83 20 ff ff ff 	lea    -0xe0(%rbx),%rax
   2b807:	48 89 c2             	mov    %rax,%rdx
   2b80a:	48 89 d0             	mov    %rdx,%rax
   2b80d:	48 c1 e8 03          	shr    $0x3,%rax
   2b811:	48 05 00 80 ff 7f    	add    $0x7fff8000,%rax
   2b817:	0f b6 00             	movzbl (%rax),%eax
   2b81a:	84 c0                	test   %al,%al
   2b81c:	0f 95 c1             	setne  %cl
   2b81f:	3c 03                	cmp    $0x3,%al
   2b821:	0f 9e c0             	setle  %al
   2b824:	21 c8                	and    %ecx,%eax
   2b826:	84 c0                	test   %al,%al
   2b828:	74 08                	je     2b832 <_ZL11find_coreGLv+0x681>
   2b82a:	48 89 d7             	mov    %rdx,%rdi
   2b82d:	e8 3e b8 ff ff       	callq  27070 <__asan_report_load4@plt>
   2b832:	8b 83 20 ff ff ff    	mov    -0xe0(%rbx),%eax
   2b838:	83 f8 01             	cmp    $0x1,%eax
   2b83b:	7e 07                	jle    2b844 <_ZL11find_coreGLv+0x693>
   2b83d:	b8 01 00 00 00       	mov    $0x1,%eax
   2b842:	eb 05                	jmp    2b849 <_ZL11find_coreGLv+0x698>
   2b844:	b8 00 00 00 00       	mov    $0x0,%eax
   2b849:	0f b6 c0             	movzbl %al,%eax
   2b84c:	89 05 6e e0 02 00    	mov    %eax,0x2e06e(%rip)        # 598c0 <GLAD_GL_VERSION_1_4>
   2b852:	48 8d 83 20 ff ff ff 	lea    -0xe0(%rbx),%rax
   2b859:	48 89 c2             	mov    %rax,%rdx
   2b85c:	48 89 d0             	mov    %rdx,%rax
   2b85f:	48 c1 e8 03          	shr    $0x3,%rax
   2b863:	48 05 00 80 ff 7f    	add    $0x7fff8000,%rax
   2b869:	0f b6 00             	movzbl (%rax),%eax
   2b86c:	84 c0                	test   %al,%al
   2b86e:	0f 95 c1             	setne  %cl
   2b871:	3c 03                	cmp    $0x3,%al
   2b873:	0f 9e c0             	setle  %al
   2b876:	21 c8                	and    %ecx,%eax
   2b878:	84 c0                	test   %al,%al
   2b87a:	74 08                	je     2b884 <_ZL11find_coreGLv+0x6d3>
   2b87c:	48 89 d7             	mov    %rdx,%rdi
   2b87f:	e8 ec b7 ff ff       	callq  27070 <__asan_report_load4@plt>
   2b884:	8b 83 20 ff ff ff    	mov    -0xe0(%rbx),%eax
   2b88a:	83 f8 01             	cmp    $0x1,%eax
   2b88d:	75 3d                	jne    2b8cc <_ZL11find_coreGLv+0x71b>
   2b88f:	48 8d 83 60 ff ff ff 	lea    -0xa0(%rbx),%rax
   2b896:	48 89 c2             	mov    %rax,%rdx
   2b899:	48 89 d0             	mov    %rdx,%rax
   2b89c:	48 c1 e8 03          	shr    $0x3,%rax
   2b8a0:	48 05 00 80 ff 7f    	add    $0x7fff8000,%rax
   2b8a6:	0f b6 00             	movzbl (%rax),%eax
   2b8a9:	84 c0                	test   %al,%al
   2b8ab:	0f 95 c1             	setne  %cl
   2b8ae:	3c 03                	cmp    $0x3,%al
   2b8b0:	0f 9e c0             	setle  %al
   2b8b3:	21 c8                	and    %ecx,%eax
   2b8b5:	84 c0                	test   %al,%al
   2b8b7:	74 08                	je     2b8c1 <_ZL11find_coreGLv+0x710>
   2b8b9:	48 89 d7             	mov    %rdx,%rdi
   2b8bc:	e8 af b7 ff ff       	callq  27070 <__asan_report_load4@plt>
   2b8c1:	8b 83 60 ff ff ff    	mov    -0xa0(%rbx),%eax
   2b8c7:	83 f8 04             	cmp    $0x4,%eax
   2b8ca:	7f 3d                	jg     2b909 <_ZL11find_coreGLv+0x758>
   2b8cc:	48 8d 83 20 ff ff ff 	lea    -0xe0(%rbx),%rax
   2b8d3:	48 89 c2             	mov    %rax,%rdx
   2b8d6:	48 89 d0             	mov    %rdx,%rax
   2b8d9:	48 c1 e8 03          	shr    $0x3,%rax
   2b8dd:	48 05 00 80 ff 7f    	add    $0x7fff8000,%rax
   2b8e3:	0f b6 00             	movzbl (%rax),%eax
   2b8e6:	84 c0                	test   %al,%al
   2b8e8:	0f 95 c1             	setne  %cl
   2b8eb:	3c 03                	cmp    $0x3,%al
   2b8ed:	0f 9e c0             	setle  %al
   2b8f0:	21 c8                	and    %ecx,%eax
   2b8f2:	84 c0                	test   %al,%al
   2b8f4:	74 08                	je     2b8fe <_ZL11find_coreGLv+0x74d>
   2b8f6:	48 89 d7             	mov    %rdx,%rdi
   2b8f9:	e8 72 b7 ff ff       	callq  27070 <__asan_report_load4@plt>
   2b8fe:	8b 83 20 ff ff ff    	mov    -0xe0(%rbx),%eax
   2b904:	83 f8 01             	cmp    $0x1,%eax
   2b907:	7e 07                	jle    2b910 <_ZL11find_coreGLv+0x75f>
   2b909:	b8 01 00 00 00       	mov    $0x1,%eax
   2b90e:	eb 05                	jmp    2b915 <_ZL11find_coreGLv+0x764>
   2b910:	b8 00 00 00 00       	mov    $0x0,%eax
   2b915:	0f b6 c0             	movzbl %al,%eax
   2b918:	89 05 e2 df 02 00    	mov    %eax,0x2dfe2(%rip)        # 59900 <GLAD_GL_VERSION_1_5>
   2b91e:	48 8d 83 20 ff ff ff 	lea    -0xe0(%rbx),%rax
   2b925:	48 89 c2             	mov    %rax,%rdx
   2b928:	48 89 d0             	mov    %rdx,%rax
   2b92b:	48 c1 e8 03          	shr    $0x3,%rax
   2b92f:	48 05 00 80 ff 7f    	add    $0x7fff8000,%rax
   2b935:	0f b6 00             	movzbl (%rax),%eax
   2b938:	84 c0                	test   %al,%al
   2b93a:	0f 95 c1             	setne  %cl
   2b93d:	3c 03                	cmp    $0x3,%al
   2b93f:	0f 9e c0             	setle  %al
   2b942:	21 c8                	and    %ecx,%eax
   2b944:	84 c0                	test   %al,%al
   2b946:	74 08                	je     2b950 <_ZL11find_coreGLv+0x79f>
   2b948:	48 89 d7             	mov    %rdx,%rdi
   2b94b:	e8 20 b7 ff ff       	callq  27070 <__asan_report_load4@plt>
   2b950:	8b 83 20 ff ff ff    	mov    -0xe0(%rbx),%eax
   2b956:	83 f8 02             	cmp    $0x2,%eax
   2b959:	75 3c                	jne    2b997 <_ZL11find_coreGLv+0x7e6>
   2b95b:	48 8d 83 60 ff ff ff 	lea    -0xa0(%rbx),%rax
   2b962:	48 89 c2             	mov    %rax,%rdx
   2b965:	48 89 d0             	mov    %rdx,%rax
   2b968:	48 c1 e8 03          	shr    $0x3,%rax
   2b96c:	48 05 00 80 ff 7f    	add    $0x7fff8000,%rax
   2b972:	0f b6 00             	movzbl (%rax),%eax
   2b975:	84 c0                	test   %al,%al
   2b977:	0f 95 c1             	setne  %cl
   2b97a:	3c 03                	cmp    $0x3,%al
   2b97c:	0f 9e c0             	setle  %al
   2b97f:	21 c8                	and    %ecx,%eax
   2b981:	84 c0                	test   %al,%al
   2b983:	74 08                	je     2b98d <_ZL11find_coreGLv+0x7dc>
   2b985:	48 89 d7             	mov    %rdx,%rdi
   2b988:	e8 e3 b6 ff ff       	callq  27070 <__asan_report_load4@plt>
   2b98d:	8b 83 60 ff ff ff    	mov    -0xa0(%rbx),%eax
   2b993:	85 c0                	test   %eax,%eax
   2b995:	79 3d                	jns    2b9d4 <_ZL11find_coreGLv+0x823>
   2b997:	48 8d 83 20 ff ff ff 	lea    -0xe0(%rbx),%rax
   2b99e:	48 89 c2             	mov    %rax,%rdx
   2b9a1:	48 89 d0             	mov    %rdx,%rax
   2b9a4:	48 c1 e8 03          	shr    $0x3,%rax
   2b9a8:	48 05 00 80 ff 7f    	add    $0x7fff8000,%rax
   2b9ae:	0f b6 00             	movzbl (%rax),%eax
   2b9b1:	84 c0                	test   %al,%al
   2b9b3:	0f 95 c1             	setne  %cl
   2b9b6:	3c 03                	cmp    $0x3,%al
   2b9b8:	0f 9e c0             	setle  %al
   2b9bb:	21 c8                	and    %ecx,%eax
   2b9bd:	84 c0                	test   %al,%al
   2b9bf:	74 08                	je     2b9c9 <_ZL11find_coreGLv+0x818>
   2b9c1:	48 89 d7             	mov    %rdx,%rdi
   2b9c4:	e8 a7 b6 ff ff       	callq  27070 <__asan_report_load4@plt>
   2b9c9:	8b 83 20 ff ff ff    	mov    -0xe0(%rbx),%eax
   2b9cf:	83 f8 02             	cmp    $0x2,%eax
   2b9d2:	7e 07                	jle    2b9db <_ZL11find_coreGLv+0x82a>
   2b9d4:	b8 01 00 00 00       	mov    $0x1,%eax
   2b9d9:	eb 05                	jmp    2b9e0 <_ZL11find_coreGLv+0x82f>
   2b9db:	b8 00 00 00 00       	mov    $0x0,%eax
   2b9e0:	0f b6 c0             	movzbl %al,%eax
   2b9e3:	89 05 57 df 02 00    	mov    %eax,0x2df57(%rip)        # 59940 <GLAD_GL_VERSION_2_0>
   2b9e9:	48 8d 83 20 ff ff ff 	lea    -0xe0(%rbx),%rax
   2b9f0:	48 89 c2             	mov    %rax,%rdx
   2b9f3:	48 89 d0             	mov    %rdx,%rax
   2b9f6:	48 c1 e8 03          	shr    $0x3,%rax
   2b9fa:	48 05 00 80 ff 7f    	add    $0x7fff8000,%rax
   2ba00:	0f b6 00             	movzbl (%rax),%eax
   2ba03:	84 c0                	test   %al,%al
   2ba05:	0f 95 c1             	setne  %cl
   2ba08:	3c 03                	cmp    $0x3,%al
   2ba0a:	0f 9e c0             	setle  %al
   2ba0d:	21 c8                	and    %ecx,%eax
   2ba0f:	84 c0                	test   %al,%al
   2ba11:	74 08                	je     2ba1b <_ZL11find_coreGLv+0x86a>
   2ba13:	48 89 d7             	mov    %rdx,%rdi
   2ba16:	e8 55 b6 ff ff       	callq  27070 <__asan_report_load4@plt>
   2ba1b:	8b 83 20 ff ff ff    	mov    -0xe0(%rbx),%eax
   2ba21:	83 f8 02             	cmp    $0x2,%eax
   2ba24:	75 3c                	jne    2ba62 <_ZL11find_coreGLv+0x8b1>
   2ba26:	48 8d 83 60 ff ff ff 	lea    -0xa0(%rbx),%rax
   2ba2d:	48 89 c2             	mov    %rax,%rdx
   2ba30:	48 89 d0             	mov    %rdx,%rax
   2ba33:	48 c1 e8 03          	shr    $0x3,%rax
   2ba37:	48 05 00 80 ff 7f    	add    $0x7fff8000,%rax
   2ba3d:	0f b6 00             	movzbl (%rax),%eax
   2ba40:	84 c0                	test   %al,%al
   2ba42:	0f 95 c1             	setne  %cl
   2ba45:	3c 03                	cmp    $0x3,%al
   2ba47:	0f 9e c0             	setle  %al
   2ba4a:	21 c8                	and    %ecx,%eax
   2ba4c:	84 c0                	test   %al,%al
   2ba4e:	74 08                	je     2ba58 <_ZL11find_coreGLv+0x8a7>
   2ba50:	48 89 d7             	mov    %rdx,%rdi
   2ba53:	e8 18 b6 ff ff       	callq  27070 <__asan_report_load4@plt>
   2ba58:	8b 83 60 ff ff ff    	mov    -0xa0(%rbx),%eax
   2ba5e:	85 c0                	test   %eax,%eax
   2ba60:	7f 3d                	jg     2ba9f <_ZL11find_coreGLv+0x8ee>
   2ba62:	48 8d 83 20 ff ff ff 	lea    -0xe0(%rbx),%rax
   2ba69:	48 89 c2             	mov    %rax,%rdx
   2ba6c:	48 89 d0             	mov    %rdx,%rax
   2ba6f:	48 c1 e8 03          	shr    $0x3,%rax
   2ba73:	48 05 00 80 ff 7f    	add    $0x7fff8000,%rax
   2ba79:	0f b6 00             	movzbl (%rax),%eax
   2ba7c:	84 c0                	test   %al,%al
   2ba7e:	0f 95 c1             	setne  %cl
   2ba81:	3c 03                	cmp    $0x3,%al
   2ba83:	0f 9e c0             	setle  %al
   2ba86:	21 c8                	and    %ecx,%eax
   2ba88:	84 c0                	test   %al,%al
   2ba8a:	74 08                	je     2ba94 <_ZL11find_coreGLv+0x8e3>
   2ba8c:	48 89 d7             	mov    %rdx,%rdi
   2ba8f:	e8 dc b5 ff ff       	callq  27070 <__asan_report_load4@plt>
   2ba94:	8b 83 20 ff ff ff    	mov    -0xe0(%rbx),%eax
   2ba9a:	83 f8 02             	cmp    $0x2,%eax
   2ba9d:	7e 07                	jle    2baa6 <_ZL11find_coreGLv+0x8f5>
   2ba9f:	b8 01 00 00 00       	mov    $0x1,%eax
   2baa4:	eb 05                	jmp    2baab <_ZL11find_coreGLv+0x8fa>
   2baa6:	b8 00 00 00 00       	mov    $0x0,%eax
   2baab:	0f b6 c0             	movzbl %al,%eax
   2baae:	89 05 cc de 02 00    	mov    %eax,0x2decc(%rip)        # 59980 <GLAD_GL_VERSION_2_1>
   2bab4:	48 8d 83 20 ff ff ff 	lea    -0xe0(%rbx),%rax
   2babb:	48 89 c2             	mov    %rax,%rdx
   2babe:	48 89 d0             	mov    %rdx,%rax
   2bac1:	48 c1 e8 03          	shr    $0x3,%rax
   2bac5:	48 05 00 80 ff 7f    	add    $0x7fff8000,%rax
   2bacb:	0f b6 00             	movzbl (%rax),%eax
   2bace:	84 c0                	test   %al,%al
   2bad0:	0f 95 c1             	setne  %cl
   2bad3:	3c 03                	cmp    $0x3,%al
   2bad5:	0f 9e c0             	setle  %al
   2bad8:	21 c8                	and    %ecx,%eax
   2bada:	84 c0                	test   %al,%al
   2badc:	74 08                	je     2bae6 <_ZL11find_coreGLv+0x935>
   2bade:	48 89 d7             	mov    %rdx,%rdi
   2bae1:	e8 8a b5 ff ff       	callq  27070 <__asan_report_load4@plt>
   2bae6:	8b 83 20 ff ff ff    	mov    -0xe0(%rbx),%eax
   2baec:	83 f8 03             	cmp    $0x3,%eax
   2baef:	75 3c                	jne    2bb2d <_ZL11find_coreGLv+0x97c>
   2baf1:	48 8d 83 60 ff ff ff 	lea    -0xa0(%rbx),%rax
   2baf8:	48 89 c2             	mov    %rax,%rdx
   2bafb:	48 89 d0             	mov    %rdx,%rax
   2bafe:	48 c1 e8 03          	shr    $0x3,%rax
   2bb02:	48 05 00 80 ff 7f    	add    $0x7fff8000,%rax
   2bb08:	0f b6 00             	movzbl (%rax),%eax
   2bb0b:	84 c0                	test   %al,%al
   2bb0d:	0f 95 c1             	setne  %cl
   2bb10:	3c 03                	cmp    $0x3,%al
   2bb12:	0f 9e c0             	setle  %al
   2bb15:	21 c8                	and    %ecx,%eax
   2bb17:	84 c0                	test   %al,%al
   2bb19:	74 08                	je     2bb23 <_ZL11find_coreGLv+0x972>
   2bb1b:	48 89 d7             	mov    %rdx,%rdi
   2bb1e:	e8 4d b5 ff ff       	callq  27070 <__asan_report_load4@plt>
   2bb23:	8b 83 60 ff ff ff    	mov    -0xa0(%rbx),%eax
   2bb29:	85 c0                	test   %eax,%eax
   2bb2b:	79 3d                	jns    2bb6a <_ZL11find_coreGLv+0x9b9>
   2bb2d:	48 8d 83 20 ff ff ff 	lea    -0xe0(%rbx),%rax
   2bb34:	48 89 c2             	mov    %rax,%rdx
   2bb37:	48 89 d0             	mov    %rdx,%rax
   2bb3a:	48 c1 e8 03          	shr    $0x3,%rax
   2bb3e:	48 05 00 80 ff 7f    	add    $0x7fff8000,%rax
   2bb44:	0f b6 00             	movzbl (%rax),%eax
   2bb47:	84 c0                	test   %al,%al
   2bb49:	0f 95 c1             	setne  %cl
   2bb4c:	3c 03                	cmp    $0x3,%al
   2bb4e:	0f 9e c0             	setle  %al
   2bb51:	21 c8                	and    %ecx,%eax
   2bb53:	84 c0                	test   %al,%al
   2bb55:	74 08                	je     2bb5f <_ZL11find_coreGLv+0x9ae>
   2bb57:	48 89 d7             	mov    %rdx,%rdi
   2bb5a:	e8 11 b5 ff ff       	callq  27070 <__asan_report_load4@plt>
   2bb5f:	8b 83 20 ff ff ff    	mov    -0xe0(%rbx),%eax
   2bb65:	83 f8 03             	cmp    $0x3,%eax
   2bb68:	7e 07                	jle    2bb71 <_ZL11find_coreGLv+0x9c0>
   2bb6a:	b8 01 00 00 00       	mov    $0x1,%eax
   2bb6f:	eb 05                	jmp    2bb76 <_ZL11find_coreGLv+0x9c5>
   2bb71:	b8 00 00 00 00       	mov    $0x0,%eax
   2bb76:	0f b6 c0             	movzbl %al,%eax
   2bb79:	89 05 41 de 02 00    	mov    %eax,0x2de41(%rip)        # 599c0 <GLAD_GL_VERSION_3_0>
   2bb7f:	48 8d 83 20 ff ff ff 	lea    -0xe0(%rbx),%rax
   2bb86:	48 89 c2             	mov    %rax,%rdx
   2bb89:	48 89 d0             	mov    %rdx,%rax
   2bb8c:	48 c1 e8 03          	shr    $0x3,%rax
   2bb90:	48 05 00 80 ff 7f    	add    $0x7fff8000,%rax
   2bb96:	0f b6 00             	movzbl (%rax),%eax
   2bb99:	84 c0                	test   %al,%al
   2bb9b:	0f 95 c1             	setne  %cl
   2bb9e:	3c 03                	cmp    $0x3,%al
   2bba0:	0f 9e c0             	setle  %al
   2bba3:	21 c8                	and    %ecx,%eax
   2bba5:	84 c0                	test   %al,%al
   2bba7:	74 08                	je     2bbb1 <_ZL11find_coreGLv+0xa00>
   2bba9:	48 89 d7             	mov    %rdx,%rdi
   2bbac:	e8 bf b4 ff ff       	callq  27070 <__asan_report_load4@plt>
   2bbb1:	8b 83 20 ff ff ff    	mov    -0xe0(%rbx),%eax
   2bbb7:	83 f8 03             	cmp    $0x3,%eax
   2bbba:	75 3c                	jne    2bbf8 <_ZL11find_coreGLv+0xa47>
   2bbbc:	48 8d 83 60 ff ff ff 	lea    -0xa0(%rbx),%rax
   2bbc3:	48 89 c2             	mov    %rax,%rdx
   2bbc6:	48 89 d0             	mov    %rdx,%rax
   2bbc9:	48 c1 e8 03          	shr    $0x3,%rax
   2bbcd:	48 05 00 80 ff 7f    	add    $0x7fff8000,%rax
   2bbd3:	0f b6 00             	movzbl (%rax),%eax
   2bbd6:	84 c0                	test   %al,%al
   2bbd8:	0f 95 c1             	setne  %cl
   2bbdb:	3c 03                	cmp    $0x3,%al
   2bbdd:	0f 9e c0             	setle  %al
   2bbe0:	21 c8                	and    %ecx,%eax
   2bbe2:	84 c0                	test   %al,%al
   2bbe4:	74 08                	je     2bbee <_ZL11find_coreGLv+0xa3d>
   2bbe6:	48 89 d7             	mov    %rdx,%rdi
   2bbe9:	e8 82 b4 ff ff       	callq  27070 <__asan_report_load4@plt>
   2bbee:	8b 83 60 ff ff ff    	mov    -0xa0(%rbx),%eax
   2bbf4:	85 c0                	test   %eax,%eax
   2bbf6:	7f 3d                	jg     2bc35 <_ZL11find_coreGLv+0xa84>
   2bbf8:	48 8d 83 20 ff ff ff 	lea    -0xe0(%rbx),%rax
   2bbff:	48 89 c2             	mov    %rax,%rdx
   2bc02:	48 89 d0             	mov    %rdx,%rax
   2bc05:	48 c1 e8 03          	shr    $0x3,%rax
   2bc09:	48 05 00 80 ff 7f    	add    $0x7fff8000,%rax
   2bc0f:	0f b6 00             	movzbl (%rax),%eax
   2bc12:	84 c0                	test   %al,%al
   2bc14:	0f 95 c1             	setne  %cl
   2bc17:	3c 03                	cmp    $0x3,%al
   2bc19:	0f 9e c0             	setle  %al
   2bc1c:	21 c8                	and    %ecx,%eax
   2bc1e:	84 c0                	test   %al,%al
   2bc20:	74 08                	je     2bc2a <_ZL11find_coreGLv+0xa79>
   2bc22:	48 89 d7             	mov    %rdx,%rdi
   2bc25:	e8 46 b4 ff ff       	callq  27070 <__asan_report_load4@plt>
   2bc2a:	8b 83 20 ff ff ff    	mov    -0xe0(%rbx),%eax
   2bc30:	83 f8 03             	cmp    $0x3,%eax
   2bc33:	7e 07                	jle    2bc3c <_ZL11find_coreGLv+0xa8b>
   2bc35:	b8 01 00 00 00       	mov    $0x1,%eax
   2bc3a:	eb 05                	jmp    2bc41 <_ZL11find_coreGLv+0xa90>
   2bc3c:	b8 00 00 00 00       	mov    $0x0,%eax
   2bc41:	0f b6 c0             	movzbl %al,%eax
   2bc44:	89 05 b6 dd 02 00    	mov    %eax,0x2ddb6(%rip)        # 59a00 <GLAD_GL_VERSION_3_1>
   2bc4a:	48 8d 83 20 ff ff ff 	lea    -0xe0(%rbx),%rax
   2bc51:	48 89 c2             	mov    %rax,%rdx
   2bc54:	48 89 d0             	mov    %rdx,%rax
   2bc57:	48 c1 e8 03          	shr    $0x3,%rax
   2bc5b:	48 05 00 80 ff 7f    	add    $0x7fff8000,%rax
   2bc61:	0f b6 00             	movzbl (%rax),%eax
   2bc64:	84 c0                	test   %al,%al
   2bc66:	0f 95 c1             	setne  %cl
   2bc69:	3c 03                	cmp    $0x3,%al
   2bc6b:	0f 9e c0             	setle  %al
   2bc6e:	21 c8                	and    %ecx,%eax
   2bc70:	84 c0                	test   %al,%al
   2bc72:	74 08                	je     2bc7c <_ZL11find_coreGLv+0xacb>
   2bc74:	48 89 d7             	mov    %rdx,%rdi
   2bc77:	e8 f4 b3 ff ff       	callq  27070 <__asan_report_load4@plt>
   2bc7c:	8b 83 20 ff ff ff    	mov    -0xe0(%rbx),%eax
   2bc82:	83 f8 03             	cmp    $0x3,%eax
   2bc85:	75 3d                	jne    2bcc4 <_ZL11find_coreGLv+0xb13>
   2bc87:	48 8d 83 60 ff ff ff 	lea    -0xa0(%rbx),%rax
   2bc8e:	48 89 c2             	mov    %rax,%rdx
   2bc91:	48 89 d0             	mov    %rdx,%rax
   2bc94:	48 c1 e8 03          	shr    $0x3,%rax
   2bc98:	48 05 00 80 ff 7f    	add    $0x7fff8000,%rax
   2bc9e:	0f b6 00             	movzbl (%rax),%eax
   2bca1:	84 c0                	test   %al,%al
   2bca3:	0f 95 c1             	setne  %cl
   2bca6:	3c 03                	cmp    $0x3,%al
   2bca8:	0f 9e c0             	setle  %al
   2bcab:	21 c8                	and    %ecx,%eax
   2bcad:	84 c0                	test   %al,%al
   2bcaf:	74 08                	je     2bcb9 <_ZL11find_coreGLv+0xb08>
   2bcb1:	48 89 d7             	mov    %rdx,%rdi
   2bcb4:	e8 b7 b3 ff ff       	callq  27070 <__asan_report_load4@plt>
   2bcb9:	8b 83 60 ff ff ff    	mov    -0xa0(%rbx),%eax
   2bcbf:	83 f8 01             	cmp    $0x1,%eax
   2bcc2:	7f 3d                	jg     2bd01 <_ZL11find_coreGLv+0xb50>
   2bcc4:	48 8d 83 20 ff ff ff 	lea    -0xe0(%rbx),%rax
   2bccb:	48 89 c2             	mov    %rax,%rdx
   2bcce:	48 89 d0             	mov    %rdx,%rax
   2bcd1:	48 c1 e8 03          	shr    $0x3,%rax
   2bcd5:	48 05 00 80 ff 7f    	add    $0x7fff8000,%rax
   2bcdb:	0f b6 00             	movzbl (%rax),%eax
   2bcde:	84 c0                	test   %al,%al
   2bce0:	0f 95 c1             	setne  %cl
   2bce3:	3c 03                	cmp    $0x3,%al
   2bce5:	0f 9e c0             	setle  %al
   2bce8:	21 c8                	and    %ecx,%eax
   2bcea:	84 c0                	test   %al,%al
   2bcec:	74 08                	je     2bcf6 <_ZL11find_coreGLv+0xb45>
   2bcee:	48 89 d7             	mov    %rdx,%rdi
   2bcf1:	e8 7a b3 ff ff       	callq  27070 <__asan_report_load4@plt>
   2bcf6:	8b 83 20 ff ff ff    	mov    -0xe0(%rbx),%eax
   2bcfc:	83 f8 03             	cmp    $0x3,%eax
   2bcff:	7e 07                	jle    2bd08 <_ZL11find_coreGLv+0xb57>
   2bd01:	b8 01 00 00 00       	mov    $0x1,%eax
   2bd06:	eb 05                	jmp    2bd0d <_ZL11find_coreGLv+0xb5c>
   2bd08:	b8 00 00 00 00       	mov    $0x0,%eax
   2bd0d:	0f b6 c0             	movzbl %al,%eax
   2bd10:	89 05 2a dd 02 00    	mov    %eax,0x2dd2a(%rip)        # 59a40 <GLAD_GL_VERSION_3_2>
   2bd16:	48 8d 83 20 ff ff ff 	lea    -0xe0(%rbx),%rax
   2bd1d:	48 89 c2             	mov    %rax,%rdx
   2bd20:	48 89 d0             	mov    %rdx,%rax
   2bd23:	48 c1 e8 03          	shr    $0x3,%rax
   2bd27:	48 05 00 80 ff 7f    	add    $0x7fff8000,%rax
   2bd2d:	0f b6 00             	movzbl (%rax),%eax
   2bd30:	84 c0                	test   %al,%al
   2bd32:	0f 95 c1             	setne  %cl
   2bd35:	3c 03                	cmp    $0x3,%al
   2bd37:	0f 9e c0             	setle  %al
   2bd3a:	21 c8                	and    %ecx,%eax
   2bd3c:	84 c0                	test   %al,%al
   2bd3e:	74 08                	je     2bd48 <_ZL11find_coreGLv+0xb97>
   2bd40:	48 89 d7             	mov    %rdx,%rdi
   2bd43:	e8 28 b3 ff ff       	callq  27070 <__asan_report_load4@plt>
   2bd48:	8b 83 20 ff ff ff    	mov    -0xe0(%rbx),%eax
   2bd4e:	83 f8 03             	cmp    $0x3,%eax
   2bd51:	75 3d                	jne    2bd90 <_ZL11find_coreGLv+0xbdf>
   2bd53:	48 8d 83 60 ff ff ff 	lea    -0xa0(%rbx),%rax
   2bd5a:	48 89 c2             	mov    %rax,%rdx
   2bd5d:	48 89 d0             	mov    %rdx,%rax
   2bd60:	48 c1 e8 03          	shr    $0x3,%rax
   2bd64:	48 05 00 80 ff 7f    	add    $0x7fff8000,%rax
   2bd6a:	0f b6 00             	movzbl (%rax),%eax
   2bd6d:	84 c0                	test   %al,%al
   2bd6f:	0f 95 c1             	setne  %cl
   2bd72:	3c 03                	cmp    $0x3,%al
   2bd74:	0f 9e c0             	setle  %al
   2bd77:	21 c8                	and    %ecx,%eax
   2bd79:	84 c0                	test   %al,%al
   2bd7b:	74 08                	je     2bd85 <_ZL11find_coreGLv+0xbd4>
   2bd7d:	48 89 d7             	mov    %rdx,%rdi
   2bd80:	e8 eb b2 ff ff       	callq  27070 <__asan_report_load4@plt>
   2bd85:	8b 83 60 ff ff ff    	mov    -0xa0(%rbx),%eax
   2bd8b:	83 f8 02             	cmp    $0x2,%eax
   2bd8e:	7f 3d                	jg     2bdcd <_ZL11find_coreGLv+0xc1c>
   2bd90:	48 8d 83 20 ff ff ff 	lea    -0xe0(%rbx),%rax
   2bd97:	48 89 c2             	mov    %rax,%rdx
   2bd9a:	48 89 d0             	mov    %rdx,%rax
   2bd9d:	48 c1 e8 03          	shr    $0x3,%rax
   2bda1:	48 05 00 80 ff 7f    	add    $0x7fff8000,%rax
   2bda7:	0f b6 00             	movzbl (%rax),%eax
   2bdaa:	84 c0                	test   %al,%al
   2bdac:	0f 95 c1             	setne  %cl
   2bdaf:	3c 03                	cmp    $0x3,%al
   2bdb1:	0f 9e c0             	setle  %al
   2bdb4:	21 c8                	and    %ecx,%eax
   2bdb6:	84 c0                	test   %al,%al
   2bdb8:	74 08                	je     2bdc2 <_ZL11find_coreGLv+0xc11>
   2bdba:	48 89 d7             	mov    %rdx,%rdi
   2bdbd:	e8 ae b2 ff ff       	callq  27070 <__asan_report_load4@plt>
   2bdc2:	8b 83 20 ff ff ff    	mov    -0xe0(%rbx),%eax
   2bdc8:	83 f8 03             	cmp    $0x3,%eax
   2bdcb:	7e 07                	jle    2bdd4 <_ZL11find_coreGLv+0xc23>
   2bdcd:	b8 01 00 00 00       	mov    $0x1,%eax
   2bdd2:	eb 05                	jmp    2bdd9 <_ZL11find_coreGLv+0xc28>
   2bdd4:	b8 00 00 00 00       	mov    $0x0,%eax
   2bdd9:	0f b6 c0             	movzbl %al,%eax
   2bddc:	89 05 9e dc 02 00    	mov    %eax,0x2dc9e(%rip)        # 59a80 <GLAD_GL_VERSION_3_3>
   2bde2:	48 8d 83 20 ff ff ff 	lea    -0xe0(%rbx),%rax
   2bde9:	48 89 c2             	mov    %rax,%rdx
   2bdec:	48 89 d0             	mov    %rdx,%rax
   2bdef:	48 c1 e8 03          	shr    $0x3,%rax
   2bdf3:	48 05 00 80 ff 7f    	add    $0x7fff8000,%rax
   2bdf9:	0f b6 00             	movzbl (%rax),%eax
   2bdfc:	84 c0                	test   %al,%al
   2bdfe:	0f 95 c1             	setne  %cl
   2be01:	3c 03                	cmp    $0x3,%al
   2be03:	0f 9e c0             	setle  %al
   2be06:	21 c8                	and    %ecx,%eax
   2be08:	84 c0                	test   %al,%al
   2be0a:	74 08                	je     2be14 <_ZL11find_coreGLv+0xc63>
   2be0c:	48 89 d7             	mov    %rdx,%rdi
   2be0f:	e8 5c b2 ff ff       	callq  27070 <__asan_report_load4@plt>
   2be14:	8b 83 20 ff ff ff    	mov    -0xe0(%rbx),%eax
   2be1a:	83 f8 04             	cmp    $0x4,%eax
   2be1d:	75 3c                	jne    2be5b <_ZL11find_coreGLv+0xcaa>
   2be1f:	48 8d 83 60 ff ff ff 	lea    -0xa0(%rbx),%rax
   2be26:	48 89 c2             	mov    %rax,%rdx
   2be29:	48 89 d0             	mov    %rdx,%rax
   2be2c:	48 c1 e8 03          	shr    $0x3,%rax
   2be30:	48 05 00 80 ff 7f    	add    $0x7fff8000,%rax
   2be36:	0f b6 00             	movzbl (%rax),%eax
   2be39:	84 c0                	test   %al,%al
   2be3b:	0f 95 c1             	setne  %cl
   2be3e:	3c 03                	cmp    $0x3,%al
   2be40:	0f 9e c0             	setle  %al
   2be43:	21 c8                	and    %ecx,%eax
   2be45:	84 c0                	test   %al,%al
   2be47:	74 08                	je     2be51 <_ZL11find_coreGLv+0xca0>
   2be49:	48 89 d7             	mov    %rdx,%rdi
   2be4c:	e8 1f b2 ff ff       	callq  27070 <__asan_report_load4@plt>
   2be51:	8b 83 60 ff ff ff    	mov    -0xa0(%rbx),%eax
   2be57:	85 c0                	test   %eax,%eax
   2be59:	79 3d                	jns    2be98 <_ZL11find_coreGLv+0xce7>
   2be5b:	48 8d 83 20 ff ff ff 	lea    -0xe0(%rbx),%rax
   2be62:	48 89 c2             	mov    %rax,%rdx
   2be65:	48 89 d0             	mov    %rdx,%rax
   2be68:	48 c1 e8 03          	shr    $0x3,%rax
   2be6c:	48 05 00 80 ff 7f    	add    $0x7fff8000,%rax
   2be72:	0f b6 00             	movzbl (%rax),%eax
   2be75:	84 c0                	test   %al,%al
   2be77:	0f 95 c1             	setne  %cl
   2be7a:	3c 03                	cmp    $0x3,%al
   2be7c:	0f 9e c0             	setle  %al
   2be7f:	21 c8                	and    %ecx,%eax
   2be81:	84 c0                	test   %al,%al
   2be83:	74 08                	je     2be8d <_ZL11find_coreGLv+0xcdc>
   2be85:	48 89 d7             	mov    %rdx,%rdi
   2be88:	e8 e3 b1 ff ff       	callq  27070 <__asan_report_load4@plt>
   2be8d:	8b 83 20 ff ff ff    	mov    -0xe0(%rbx),%eax
   2be93:	83 f8 04             	cmp    $0x4,%eax
   2be96:	7e 07                	jle    2be9f <_ZL11find_coreGLv+0xcee>
   2be98:	b8 01 00 00 00       	mov    $0x1,%eax
   2be9d:	eb 05                	jmp    2bea4 <_ZL11find_coreGLv+0xcf3>
   2be9f:	b8 00 00 00 00       	mov    $0x0,%eax
   2bea4:	0f b6 c0             	movzbl %al,%eax
   2bea7:	89 05 13 dc 02 00    	mov    %eax,0x2dc13(%rip)        # 59ac0 <GLAD_GL_VERSION_4_0>
   2bead:	48 8d 83 20 ff ff ff 	lea    -0xe0(%rbx),%rax
   2beb4:	48 89 c2             	mov    %rax,%rdx
   2beb7:	48 89 d0             	mov    %rdx,%rax
   2beba:	48 c1 e8 03          	shr    $0x3,%rax
   2bebe:	48 05 00 80 ff 7f    	add    $0x7fff8000,%rax
   2bec4:	0f b6 00             	movzbl (%rax),%eax
   2bec7:	84 c0                	test   %al,%al
   2bec9:	0f 95 c1             	setne  %cl
   2becc:	3c 03                	cmp    $0x3,%al
   2bece:	0f 9e c0             	setle  %al
   2bed1:	21 c8                	and    %ecx,%eax
   2bed3:	84 c0                	test   %al,%al
   2bed5:	74 08                	je     2bedf <_ZL11find_coreGLv+0xd2e>
   2bed7:	48 89 d7             	mov    %rdx,%rdi
   2beda:	e8 91 b1 ff ff       	callq  27070 <__asan_report_load4@plt>
   2bedf:	8b 83 20 ff ff ff    	mov    -0xe0(%rbx),%eax
   2bee5:	83 f8 04             	cmp    $0x4,%eax
   2bee8:	75 3c                	jne    2bf26 <_ZL11find_coreGLv+0xd75>
   2beea:	48 8d 83 60 ff ff ff 	lea    -0xa0(%rbx),%rax
   2bef1:	48 89 c2             	mov    %rax,%rdx
   2bef4:	48 89 d0             	mov    %rdx,%rax
   2bef7:	48 c1 e8 03          	shr    $0x3,%rax
   2befb:	48 05 00 80 ff 7f    	add    $0x7fff8000,%rax
   2bf01:	0f b6 00             	movzbl (%rax),%eax
   2bf04:	84 c0                	test   %al,%al
   2bf06:	0f 95 c1             	setne  %cl
   2bf09:	3c 03                	cmp    $0x3,%al
   2bf0b:	0f 9e c0             	setle  %al
   2bf0e:	21 c8                	and    %ecx,%eax
   2bf10:	84 c0                	test   %al,%al
   2bf12:	74 08                	je     2bf1c <_ZL11find_coreGLv+0xd6b>
   2bf14:	48 89 d7             	mov    %rdx,%rdi
   2bf17:	e8 54 b1 ff ff       	callq  27070 <__asan_report_load4@plt>
   2bf1c:	8b 83 60 ff ff ff    	mov    -0xa0(%rbx),%eax
   2bf22:	85 c0                	test   %eax,%eax
   2bf24:	7f 3d                	jg     2bf63 <_ZL11find_coreGLv+0xdb2>
   2bf26:	48 8d 83 20 ff ff ff 	lea    -0xe0(%rbx),%rax
   2bf2d:	48 89 c2             	mov    %rax,%rdx
   2bf30:	48 89 d0             	mov    %rdx,%rax
   2bf33:	48 c1 e8 03          	shr    $0x3,%rax
   2bf37:	48 05 00 80 ff 7f    	add    $0x7fff8000,%rax
   2bf3d:	0f b6 00             	movzbl (%rax),%eax
   2bf40:	84 c0                	test   %al,%al
   2bf42:	0f 95 c1             	setne  %cl
   2bf45:	3c 03                	cmp    $0x3,%al
   2bf47:	0f 9e c0             	setle  %al
   2bf4a:	21 c8                	and    %ecx,%eax
   2bf4c:	84 c0                	test   %al,%al
   2bf4e:	74 08                	je     2bf58 <_ZL11find_coreGLv+0xda7>
   2bf50:	48 89 d7             	mov    %rdx,%rdi
   2bf53:	e8 18 b1 ff ff       	callq  27070 <__asan_report_load4@plt>
   2bf58:	8b 83 20 ff ff ff    	mov    -0xe0(%rbx),%eax
   2bf5e:	83 f8 04             	cmp    $0x4,%eax
   2bf61:	7e 07                	jle    2bf6a <_ZL11find_coreGLv+0xdb9>
   2bf63:	b8 01 00 00 00       	mov    $0x1,%eax
   2bf68:	eb 05                	jmp    2bf6f <_ZL11find_coreGLv+0xdbe>
   2bf6a:	b8 00 00 00 00       	mov    $0x0,%eax
   2bf6f:	0f b6 c0             	movzbl %al,%eax
   2bf72:	89 05 88 db 02 00    	mov    %eax,0x2db88(%rip)        # 59b00 <GLAD_GL_VERSION_4_1>
   2bf78:	48 8d 83 20 ff ff ff 	lea    -0xe0(%rbx),%rax
   2bf7f:	48 89 c2             	mov    %rax,%rdx
   2bf82:	48 89 d0             	mov    %rdx,%rax
   2bf85:	48 c1 e8 03          	shr    $0x3,%rax
   2bf89:	48 05 00 80 ff 7f    	add    $0x7fff8000,%rax
   2bf8f:	0f b6 00             	movzbl (%rax),%eax
   2bf92:	84 c0                	test   %al,%al
   2bf94:	0f 95 c1             	setne  %cl
   2bf97:	3c 03                	cmp    $0x3,%al
   2bf99:	0f 9e c0             	setle  %al
   2bf9c:	21 c8                	and    %ecx,%eax
   2bf9e:	84 c0                	test   %al,%al
   2bfa0:	74 08                	je     2bfaa <_ZL11find_coreGLv+0xdf9>
   2bfa2:	48 89 d7             	mov    %rdx,%rdi
   2bfa5:	e8 c6 b0 ff ff       	callq  27070 <__asan_report_load4@plt>
   2bfaa:	8b 83 20 ff ff ff    	mov    -0xe0(%rbx),%eax
   2bfb0:	83 f8 04             	cmp    $0x4,%eax
   2bfb3:	75 3d                	jne    2bff2 <_ZL11find_coreGLv+0xe41>
   2bfb5:	48 8d 83 60 ff ff ff 	lea    -0xa0(%rbx),%rax
   2bfbc:	48 89 c2             	mov    %rax,%rdx
   2bfbf:	48 89 d0             	mov    %rdx,%rax
   2bfc2:	48 c1 e8 03          	shr    $0x3,%rax
   2bfc6:	48 05 00 80 ff 7f    	add    $0x7fff8000,%rax
   2bfcc:	0f b6 00             	movzbl (%rax),%eax
   2bfcf:	84 c0                	test   %al,%al
   2bfd1:	0f 95 c1             	setne  %cl
   2bfd4:	3c 03                	cmp    $0x3,%al
   2bfd6:	0f 9e c0             	setle  %al
   2bfd9:	21 c8                	and    %ecx,%eax
   2bfdb:	84 c0                	test   %al,%al
   2bfdd:	74 08                	je     2bfe7 <_ZL11find_coreGLv+0xe36>
   2bfdf:	48 89 d7             	mov    %rdx,%rdi
   2bfe2:	e8 89 b0 ff ff       	callq  27070 <__asan_report_load4@plt>
   2bfe7:	8b 83 60 ff ff ff    	mov    -0xa0(%rbx),%eax
   2bfed:	83 f8 01             	cmp    $0x1,%eax
   2bff0:	7f 3d                	jg     2c02f <_ZL11find_coreGLv+0xe7e>
   2bff2:	48 8d 83 20 ff ff ff 	lea    -0xe0(%rbx),%rax
   2bff9:	48 89 c2             	mov    %rax,%rdx
   2bffc:	48 89 d0             	mov    %rdx,%rax
   2bfff:	48 c1 e8 03          	shr    $0x3,%rax
   2c003:	48 05 00 80 ff 7f    	add    $0x7fff8000,%rax
   2c009:	0f b6 00             	movzbl (%rax),%eax
   2c00c:	84 c0                	test   %al,%al
   2c00e:	0f 95 c1             	setne  %cl
   2c011:	3c 03                	cmp    $0x3,%al
   2c013:	0f 9e c0             	setle  %al
   2c016:	21 c8                	and    %ecx,%eax
   2c018:	84 c0                	test   %al,%al
   2c01a:	74 08                	je     2c024 <_ZL11find_coreGLv+0xe73>
   2c01c:	48 89 d7             	mov    %rdx,%rdi
   2c01f:	e8 4c b0 ff ff       	callq  27070 <__asan_report_load4@plt>
   2c024:	8b 83 20 ff ff ff    	mov    -0xe0(%rbx),%eax
   2c02a:	83 f8 04             	cmp    $0x4,%eax
   2c02d:	7e 07                	jle    2c036 <_ZL11find_coreGLv+0xe85>
   2c02f:	b8 01 00 00 00       	mov    $0x1,%eax
   2c034:	eb 05                	jmp    2c03b <_ZL11find_coreGLv+0xe8a>
   2c036:	b8 00 00 00 00       	mov    $0x0,%eax
   2c03b:	0f b6 c0             	movzbl %al,%eax
   2c03e:	89 05 fc da 02 00    	mov    %eax,0x2dafc(%rip)        # 59b40 <GLAD_GL_VERSION_4_2>
   2c044:	48 8d 83 20 ff ff ff 	lea    -0xe0(%rbx),%rax
   2c04b:	48 89 c2             	mov    %rax,%rdx
   2c04e:	48 89 d0             	mov    %rdx,%rax
   2c051:	48 c1 e8 03          	shr    $0x3,%rax
   2c055:	48 05 00 80 ff 7f    	add    $0x7fff8000,%rax
   2c05b:	0f b6 00             	movzbl (%rax),%eax
   2c05e:	84 c0                	test   %al,%al
   2c060:	0f 95 c1             	setne  %cl
   2c063:	3c 03                	cmp    $0x3,%al
   2c065:	0f 9e c0             	setle  %al
   2c068:	21 c8                	and    %ecx,%eax
   2c06a:	84 c0                	test   %al,%al
   2c06c:	74 08                	je     2c076 <_ZL11find_coreGLv+0xec5>
   2c06e:	48 89 d7             	mov    %rdx,%rdi
   2c071:	e8 fa af ff ff       	callq  27070 <__asan_report_load4@plt>
   2c076:	8b 83 20 ff ff ff    	mov    -0xe0(%rbx),%eax
   2c07c:	83 f8 04             	cmp    $0x4,%eax
   2c07f:	75 3d                	jne    2c0be <_ZL11find_coreGLv+0xf0d>
   2c081:	48 8d 83 60 ff ff ff 	lea    -0xa0(%rbx),%rax
   2c088:	48 89 c2             	mov    %rax,%rdx
   2c08b:	48 89 d0             	mov    %rdx,%rax
   2c08e:	48 c1 e8 03          	shr    $0x3,%rax
   2c092:	48 05 00 80 ff 7f    	add    $0x7fff8000,%rax
   2c098:	0f b6 00             	movzbl (%rax),%eax
   2c09b:	84 c0                	test   %al,%al
   2c09d:	0f 95 c1             	setne  %cl
   2c0a0:	3c 03                	cmp    $0x3,%al
   2c0a2:	0f 9e c0             	setle  %al
   2c0a5:	21 c8                	and    %ecx,%eax
   2c0a7:	84 c0                	test   %al,%al
   2c0a9:	74 08                	je     2c0b3 <_ZL11find_coreGLv+0xf02>
   2c0ab:	48 89 d7             	mov    %rdx,%rdi
   2c0ae:	e8 bd af ff ff       	callq  27070 <__asan_report_load4@plt>
   2c0b3:	8b 83 60 ff ff ff    	mov    -0xa0(%rbx),%eax
   2c0b9:	83 f8 02             	cmp    $0x2,%eax
   2c0bc:	7f 3d                	jg     2c0fb <_ZL11find_coreGLv+0xf4a>
   2c0be:	48 8d 83 20 ff ff ff 	lea    -0xe0(%rbx),%rax
   2c0c5:	48 89 c2             	mov    %rax,%rdx
   2c0c8:	48 89 d0             	mov    %rdx,%rax
   2c0cb:	48 c1 e8 03          	shr    $0x3,%rax
   2c0cf:	48 05 00 80 ff 7f    	add    $0x7fff8000,%rax
   2c0d5:	0f b6 00             	movzbl (%rax),%eax
   2c0d8:	84 c0                	test   %al,%al
   2c0da:	0f 95 c1             	setne  %cl
   2c0dd:	3c 03                	cmp    $0x3,%al
   2c0df:	0f 9e c0             	setle  %al
   2c0e2:	21 c8                	and    %ecx,%eax
   2c0e4:	84 c0                	test   %al,%al
   2c0e6:	74 08                	je     2c0f0 <_ZL11find_coreGLv+0xf3f>
   2c0e8:	48 89 d7             	mov    %rdx,%rdi
   2c0eb:	e8 80 af ff ff       	callq  27070 <__asan_report_load4@plt>
   2c0f0:	8b 83 20 ff ff ff    	mov    -0xe0(%rbx),%eax
   2c0f6:	83 f8 04             	cmp    $0x4,%eax
   2c0f9:	7e 07                	jle    2c102 <_ZL11find_coreGLv+0xf51>
   2c0fb:	b8 01 00 00 00       	mov    $0x1,%eax
   2c100:	eb 05                	jmp    2c107 <_ZL11find_coreGLv+0xf56>
   2c102:	b8 00 00 00 00       	mov    $0x0,%eax
   2c107:	0f b6 c0             	movzbl %al,%eax
   2c10a:	89 05 70 da 02 00    	mov    %eax,0x2da70(%rip)        # 59b80 <GLAD_GL_VERSION_4_3>
   2c110:	48 8d 83 20 ff ff ff 	lea    -0xe0(%rbx),%rax
   2c117:	48 89 c2             	mov    %rax,%rdx
   2c11a:	48 89 d0             	mov    %rdx,%rax
   2c11d:	48 c1 e8 03          	shr    $0x3,%rax
   2c121:	48 05 00 80 ff 7f    	add    $0x7fff8000,%rax
   2c127:	0f b6 00             	movzbl (%rax),%eax
   2c12a:	84 c0                	test   %al,%al
   2c12c:	0f 95 c1             	setne  %cl
   2c12f:	3c 03                	cmp    $0x3,%al
   2c131:	0f 9e c0             	setle  %al
   2c134:	21 c8                	and    %ecx,%eax
   2c136:	84 c0                	test   %al,%al
   2c138:	74 08                	je     2c142 <_ZL11find_coreGLv+0xf91>
   2c13a:	48 89 d7             	mov    %rdx,%rdi
   2c13d:	e8 2e af ff ff       	callq  27070 <__asan_report_load4@plt>
   2c142:	8b 83 20 ff ff ff    	mov    -0xe0(%rbx),%eax
   2c148:	83 f8 04             	cmp    $0x4,%eax
   2c14b:	75 3d                	jne    2c18a <_ZL11find_coreGLv+0xfd9>
   2c14d:	48 8d 83 60 ff ff ff 	lea    -0xa0(%rbx),%rax
   2c154:	48 89 c2             	mov    %rax,%rdx
   2c157:	48 89 d0             	mov    %rdx,%rax
   2c15a:	48 c1 e8 03          	shr    $0x3,%rax
   2c15e:	48 05 00 80 ff 7f    	add    $0x7fff8000,%rax
   2c164:	0f b6 00             	movzbl (%rax),%eax
   2c167:	84 c0                	test   %al,%al
   2c169:	0f 95 c1             	setne  %cl
   2c16c:	3c 03                	cmp    $0x3,%al
   2c16e:	0f 9e c0             	setle  %al
   2c171:	21 c8                	and    %ecx,%eax
   2c173:	84 c0                	test   %al,%al
   2c175:	74 08                	je     2c17f <_ZL11find_coreGLv+0xfce>
   2c177:	48 89 d7             	mov    %rdx,%rdi
   2c17a:	e8 f1 ae ff ff       	callq  27070 <__asan_report_load4@plt>
   2c17f:	8b 83 60 ff ff ff    	mov    -0xa0(%rbx),%eax
   2c185:	83 f8 03             	cmp    $0x3,%eax
   2c188:	7f 3d                	jg     2c1c7 <_ZL11find_coreGLv+0x1016>
   2c18a:	48 8d 83 20 ff ff ff 	lea    -0xe0(%rbx),%rax
   2c191:	48 89 c2             	mov    %rax,%rdx
   2c194:	48 89 d0             	mov    %rdx,%rax
   2c197:	48 c1 e8 03          	shr    $0x3,%rax
   2c19b:	48 05 00 80 ff 7f    	add    $0x7fff8000,%rax
   2c1a1:	0f b6 00             	movzbl (%rax),%eax
   2c1a4:	84 c0                	test   %al,%al
   2c1a6:	0f 95 c1             	setne  %cl
   2c1a9:	3c 03                	cmp    $0x3,%al
   2c1ab:	0f 9e c0             	setle  %al
   2c1ae:	21 c8                	and    %ecx,%eax
   2c1b0:	84 c0                	test   %al,%al
   2c1b2:	74 08                	je     2c1bc <_ZL11find_coreGLv+0x100b>
   2c1b4:	48 89 d7             	mov    %rdx,%rdi
   2c1b7:	e8 b4 ae ff ff       	callq  27070 <__asan_report_load4@plt>
   2c1bc:	8b 83 20 ff ff ff    	mov    -0xe0(%rbx),%eax
   2c1c2:	83 f8 04             	cmp    $0x4,%eax
   2c1c5:	7e 07                	jle    2c1ce <_ZL11find_coreGLv+0x101d>
   2c1c7:	b8 01 00 00 00       	mov    $0x1,%eax
   2c1cc:	eb 05                	jmp    2c1d3 <_ZL11find_coreGLv+0x1022>
   2c1ce:	b8 00 00 00 00       	mov    $0x0,%eax
   2c1d3:	0f b6 c0             	movzbl %al,%eax
   2c1d6:	89 05 e4 d9 02 00    	mov    %eax,0x2d9e4(%rip)        # 59bc0 <GLAD_GL_VERSION_4_4>
   2c1dc:	48 8d 83 20 ff ff ff 	lea    -0xe0(%rbx),%rax
   2c1e3:	48 89 c2             	mov    %rax,%rdx
   2c1e6:	48 89 d0             	mov    %rdx,%rax
   2c1e9:	48 c1 e8 03          	shr    $0x3,%rax
   2c1ed:	48 05 00 80 ff 7f    	add    $0x7fff8000,%rax
   2c1f3:	0f b6 00             	movzbl (%rax),%eax
   2c1f6:	84 c0                	test   %al,%al
   2c1f8:	0f 95 c1             	setne  %cl
   2c1fb:	3c 03                	cmp    $0x3,%al
   2c1fd:	0f 9e c0             	setle  %al
   2c200:	21 c8                	and    %ecx,%eax
   2c202:	84 c0                	test   %al,%al
   2c204:	74 08                	je     2c20e <_ZL11find_coreGLv+0x105d>
   2c206:	48 89 d7             	mov    %rdx,%rdi
   2c209:	e8 62 ae ff ff       	callq  27070 <__asan_report_load4@plt>
   2c20e:	8b 83 20 ff ff ff    	mov    -0xe0(%rbx),%eax
   2c214:	83 f8 04             	cmp    $0x4,%eax
   2c217:	75 3d                	jne    2c256 <_ZL11find_coreGLv+0x10a5>
   2c219:	48 8d 83 60 ff ff ff 	lea    -0xa0(%rbx),%rax
   2c220:	48 89 c2             	mov    %rax,%rdx
   2c223:	48 89 d0             	mov    %rdx,%rax
   2c226:	48 c1 e8 03          	shr    $0x3,%rax
   2c22a:	48 05 00 80 ff 7f    	add    $0x7fff8000,%rax
   2c230:	0f b6 00             	movzbl (%rax),%eax
   2c233:	84 c0                	test   %al,%al
   2c235:	0f 95 c1             	setne  %cl
   2c238:	3c 03                	cmp    $0x3,%al
   2c23a:	0f 9e c0             	setle  %al
   2c23d:	21 c8                	and    %ecx,%eax
   2c23f:	84 c0                	test   %al,%al
   2c241:	74 08                	je     2c24b <_ZL11find_coreGLv+0x109a>
   2c243:	48 89 d7             	mov    %rdx,%rdi
   2c246:	e8 25 ae ff ff       	callq  27070 <__asan_report_load4@plt>
   2c24b:	8b 83 60 ff ff ff    	mov    -0xa0(%rbx),%eax
   2c251:	83 f8 04             	cmp    $0x4,%eax
   2c254:	7f 3d                	jg     2c293 <_ZL11find_coreGLv+0x10e2>
   2c256:	48 8d 83 20 ff ff ff 	lea    -0xe0(%rbx),%rax
   2c25d:	48 89 c2             	mov    %rax,%rdx
   2c260:	48 89 d0             	mov    %rdx,%rax
   2c263:	48 c1 e8 03          	shr    $0x3,%rax
   2c267:	48 05 00 80 ff 7f    	add    $0x7fff8000,%rax
   2c26d:	0f b6 00             	movzbl (%rax),%eax
   2c270:	84 c0                	test   %al,%al
   2c272:	0f 95 c1             	setne  %cl
   2c275:	3c 03                	cmp    $0x3,%al
   2c277:	0f 9e c0             	setle  %al
   2c27a:	21 c8                	and    %ecx,%eax
   2c27c:	84 c0                	test   %al,%al
   2c27e:	74 08                	je     2c288 <_ZL11find_coreGLv+0x10d7>
   2c280:	48 89 d7             	mov    %rdx,%rdi
   2c283:	e8 e8 ad ff ff       	callq  27070 <__asan_report_load4@plt>
   2c288:	8b 83 20 ff ff ff    	mov    -0xe0(%rbx),%eax
   2c28e:	83 f8 04             	cmp    $0x4,%eax
   2c291:	7e 07                	jle    2c29a <_ZL11find_coreGLv+0x10e9>
   2c293:	b8 01 00 00 00       	mov    $0x1,%eax
   2c298:	eb 05                	jmp    2c29f <_ZL11find_coreGLv+0x10ee>
   2c29a:	b8 00 00 00 00       	mov    $0x0,%eax
   2c29f:	0f b6 c0             	movzbl %al,%eax
   2c2a2:	89 05 58 d9 02 00    	mov    %eax,0x2d958(%rip)        # 59c00 <GLAD_GL_VERSION_4_5>
   2c2a8:	8b 05 92 d3 02 00    	mov    0x2d392(%rip),%eax        # 59640 <GLVersion>
   2c2ae:	83 f8 04             	cmp    $0x4,%eax
   2c2b1:	7f 16                	jg     2c2c9 <_ZL11find_coreGLv+0x1118>
   2c2b3:	8b 05 87 d3 02 00    	mov    0x2d387(%rip),%eax        # 59640 <GLVersion>
   2c2b9:	83 f8 03             	cmp    $0x3,%eax
   2c2bc:	7e 1f                	jle    2c2dd <_ZL11find_coreGLv+0x112c>
   2c2be:	8b 05 80 d3 02 00    	mov    0x2d380(%rip),%eax        # 59644 <GLVersion+0x4>
   2c2c4:	83 f8 04             	cmp    $0x4,%eax
   2c2c7:	7e 14                	jle    2c2dd <_ZL11find_coreGLv+0x112c>
   2c2c9:	c7 05 ad d3 02 00 04 	movl   $0x4,0x2d3ad(%rip)        # 59680 <_ZL16max_loaded_major>
   2c2d0:	00 00 00 
   2c2d3:	c7 05 e3 d3 02 00 05 	movl   $0x5,0x2d3e3(%rip)        # 596c0 <_ZL16max_loaded_minor>
   2c2da:	00 00 00 
   2c2dd:	b8 01 00 00 00       	mov    $0x1,%eax
   2c2e2:	83 f8 01             	cmp    $0x1,%eax
   2c2e5:	4d 39 ee             	cmp    %r13,%r14
   2c2e8:	74 4c                	je     2c336 <_ZL11find_coreGLv+0x1185>
   2c2ea:	49 c7 45 00 0e 36 e0 	movq   $0x45e0360e,0x0(%r13)
   2c2f1:	45 
   2c2f2:	48 b8 f5 f5 f5 f5 f5 	movabs $0xf5f5f5f5f5f5f5f5,%rax
   2c2f9:	f5 f5 f5 
   2c2fc:	48 ba f5 f5 f5 f5 f5 	movabs $0xf5f5f5f5f5f5f5f5,%rdx
   2c303:	f5 f5 f5 
   2c306:	49 89 84 24 00 80 ff 	mov    %rax,0x7fff8000(%r12)
   2c30d:	7f 
   2c30e:	49 89 94 24 08 80 ff 	mov    %rdx,0x7fff8008(%r12)
   2c315:	7f 
   2c316:	48 b8 f5 f5 f5 f5 f5 	movabs $0xf5f5f5f5f5f5f5f5,%rax
   2c31d:	f5 f5 f5 
   2c320:	49 89 84 24 10 80 ff 	mov    %rax,0x7fff8010(%r12)
   2c327:	7f 
   2c328:	41 c7 84 24 18 80 ff 	movl   $0xf5f5f5f5,0x7fff8018(%r12)
   2c32f:	7f f5 f5 f5 f5 
   2c334:	eb 30                	jmp    2c366 <_ZL11find_coreGLv+0x11b5>
   2c336:	49 c7 84 24 00 80 ff 	movq   $0x0,0x7fff8000(%r12)
   2c33d:	7f 00 00 00 00 
   2c342:	49 c7 84 24 08 80 ff 	movq   $0x0,0x7fff8008(%r12)
   2c349:	7f 00 00 00 00 
   2c34e:	41 c7 84 24 10 80 ff 	movl   $0x0,0x7fff8010(%r12)
   2c355:	7f 00 00 00 00 
   2c35a:	41 c7 84 24 18 80 ff 	movl   $0x0,0x7fff8018(%r12)
   2c361:	7f 00 00 00 00 
   2c366:	48 8b 45 d8          	mov    -0x28(%rbp),%rax
   2c36a:	64 48 33 04 25 28 00 	xor    %fs:0x28,%rax
   2c371:	00 00 
   2c373:	74 05                	je     2c37a <_ZL11find_coreGLv+0x11c9>
   2c375:	e8 a6 ad ff ff       	callq  27120 <__stack_chk_fail@plt>
   2c37a:	48 81 c4 20 01 00 00 	add    $0x120,%rsp
   2c381:	5b                   	pop    %rbx
   2c382:	41 5c                	pop    %r12
   2c384:	41 5d                	pop    %r13
   2c386:	41 5e                	pop    %r14
   2c388:	5d                   	pop    %rbp
   2c389:	c3                   	retq   

000000000002c38a <gladLoadGLLoader>:
   2c38a:	55                   	push   %rbp
   2c38b:	48 89 e5             	mov    %rsp,%rbp
   2c38e:	48 83 ec 10          	sub    $0x10,%rsp
   2c392:	48 89 7d f8          	mov    %rdi,-0x8(%rbp)
   2c396:	c7 05 a0 d2 02 00 00 	movl   $0x0,0x2d2a0(%rip)        # 59640 <GLVersion>
   2c39d:	00 00 00 
   2c3a0:	c7 05 9a d2 02 00 00 	movl   $0x0,0x2d29a(%rip)        # 59644 <GLVersion+0x4>
   2c3a7:	00 00 00 
   2c3aa:	48 8b 45 f8          	mov    -0x8(%rbp),%rax
   2c3ae:	48 8d 3d eb 16 00 00 	lea    0x16eb(%rip),%rdi        # 2daa0 <_IO_stdin_used+0xaa0>
   2c3b5:	ff d0                	callq  *%rax
   2c3b7:	48 89 05 02 1b 03 00 	mov    %rax,0x31b02(%rip)        # 5dec0 <glad_glGetString>
   2c3be:	48 8b 05 fb 1a 03 00 	mov    0x31afb(%rip),%rax        # 5dec0 <glad_glGetString>
   2c3c5:	48 85 c0             	test   %rax,%rax
   2c3c8:	75 0a                	jne    2c3d4 <gladLoadGLLoader+0x4a>
   2c3ca:	b8 00 00 00 00       	mov    $0x0,%eax
   2c3cf:	e9 37 01 00 00       	jmpq   2c50b <gladLoadGLLoader+0x181>
   2c3d4:	48 8b 05 e5 1a 03 00 	mov    0x31ae5(%rip),%rax        # 5dec0 <glad_glGetString>
   2c3db:	bf 02 1f 00 00       	mov    $0x1f02,%edi
   2c3e0:	ff d0                	callq  *%rax
   2c3e2:	48 85 c0             	test   %rax,%rax
   2c3e5:	0f 94 c0             	sete   %al
   2c3e8:	84 c0                	test   %al,%al
   2c3ea:	74 0a                	je     2c3f6 <gladLoadGLLoader+0x6c>
   2c3ec:	b8 00 00 00 00       	mov    $0x0,%eax
   2c3f1:	e9 15 01 00 00       	jmpq   2c50b <gladLoadGLLoader+0x181>
   2c3f6:	e8 b6 ed ff ff       	callq  2b1b1 <_ZL11find_coreGLv>
   2c3fb:	48 8b 45 f8          	mov    -0x8(%rbp),%rax
   2c3ff:	48 89 c7             	mov    %rax,%rdi
   2c402:	e8 c3 b4 ff ff       	callq  278ca <_ZL19load_GL_VERSION_1_0PFPvPKcE>
   2c407:	48 8b 45 f8          	mov    -0x8(%rbp),%rax
   2c40b:	48 89 c7             	mov    %rax,%rdi
   2c40e:	e8 96 b8 ff ff       	callq  27ca9 <_ZL19load_GL_VERSION_1_1PFPvPKcE>
   2c413:	48 8b 45 f8          	mov    -0x8(%rbp),%rax
   2c417:	48 89 c7             	mov    %rax,%rdi
   2c41a:	e8 ad b9 ff ff       	callq  27dcc <_ZL19load_GL_VERSION_1_2PFPvPKcE>
   2c41f:	48 8b 45 f8          	mov    -0x8(%rbp),%rax
   2c423:	48 89 c7             	mov    %rax,%rdi
   2c426:	e8 0c ba ff ff       	callq  27e37 <_ZL19load_GL_VERSION_1_3PFPvPKcE>
   2c42b:	48 8b 45 f8          	mov    -0x8(%rbp),%rax
   2c42f:	48 89 c7             	mov    %rax,%rdi
   2c432:	e8 d3 ba ff ff       	callq  27f0a <_ZL19load_GL_VERSION_1_4PFPvPKcE>
   2c437:	48 8b 45 f8          	mov    -0x8(%rbp),%rax
   2c43b:	48 89 c7             	mov    %rax,%rdi
   2c43e:	e8 9a bb ff ff       	callq  27fdd <_ZL19load_GL_VERSION_1_5PFPvPKcE>
   2c443:	48 8b 45 f8          	mov    -0x8(%rbp),%rax
   2c447:	48 89 c7             	mov    %rax,%rdi
   2c44a:	e8 29 bd ff ff       	callq  28178 <_ZL19load_GL_VERSION_2_0PFPvPKcE>
   2c44f:	48 8b 45 f8          	mov    -0x8(%rbp),%rax
   2c453:	48 89 c7             	mov    %rax,%rdi
   2c456:	e8 80 c4 ff ff       	callq  288db <_ZL19load_GL_VERSION_2_1PFPvPKcE>
   2c45b:	48 8b 45 f8          	mov    -0x8(%rbp),%rax
   2c45f:	48 89 c7             	mov    %rax,%rdi
   2c462:	e8 07 c5 ff ff       	callq  2896e <_ZL19load_GL_VERSION_3_0PFPvPKcE>
   2c467:	48 8b 45 f8          	mov    -0x8(%rbp),%rax
   2c46b:	48 89 c7             	mov    %rax,%rdi
   2c46e:	e8 aa cb ff ff       	callq  2901d <_ZL19load_GL_VERSION_3_1PFPvPKcE>
   2c473:	48 8b 45 f8          	mov    -0x8(%rbp),%rax
   2c477:	48 89 c7             	mov    %rax,%rdi
   2c47a:	e8 e9 cc ff ff       	callq  29168 <_ZL19load_GL_VERSION_3_2PFPvPKcE>
   2c47f:	48 8b 45 f8          	mov    -0x8(%rbp),%rax
   2c483:	48 89 c7             	mov    %rax,%rdi
   2c486:	e8 78 ce ff ff       	callq  29303 <_ZL19load_GL_VERSION_3_3PFPvPKcE>
   2c48b:	48 8b 45 f8          	mov    -0x8(%rbp),%rax
   2c48f:	48 89 c7             	mov    %rax,%rdi
   2c492:	e8 13 d3 ff ff       	callq  297aa <_ZL19load_GL_VERSION_4_0PFPvPKcE>
   2c497:	48 8b 45 f8          	mov    -0x8(%rbp),%rax
   2c49b:	48 89 c7             	mov    %rax,%rdi
   2c49e:	e8 be d6 ff ff       	callq  29b61 <_ZL19load_GL_VERSION_4_1PFPvPKcE>
   2c4a3:	48 8b 45 f8          	mov    -0x8(%rbp),%rax
   2c4a7:	48 89 c7             	mov    %rax,%rdi
   2c4aa:	e8 c5 dd ff ff       	callq  2a274 <_ZL19load_GL_VERSION_4_2PFPvPKcE>
   2c4af:	48 8b 45 f8          	mov    -0x8(%rbp),%rax
   2c4b3:	48 89 c7             	mov    %rax,%rdi
   2c4b6:	e8 c8 de ff ff       	callq  2a383 <_ZL19load_GL_VERSION_4_3PFPvPKcE>
   2c4bb:	48 8b 45 f8          	mov    -0x8(%rbp),%rax
   2c4bf:	48 89 c7             	mov    %rax,%rdi
   2c4c2:	e8 4b e2 ff ff       	callq  2a712 <_ZL19load_GL_VERSION_4_4PFPvPKcE>
   2c4c7:	48 8b 45 f8          	mov    -0x8(%rbp),%rax
   2c4cb:	48 89 c7             	mov    %rax,%rdi
   2c4ce:	e8 12 e3 ff ff       	callq  2a7e5 <_ZL19load_GL_VERSION_4_5PFPvPKcE>
   2c4d3:	e8 b4 ec ff ff       	callq  2b18c <_ZL17find_extensionsGLv>
   2c4d8:	85 c0                	test   %eax,%eax
   2c4da:	0f 94 c0             	sete   %al
   2c4dd:	84 c0                	test   %al,%al
   2c4df:	74 07                	je     2c4e8 <gladLoadGLLoader+0x15e>
   2c4e1:	b8 00 00 00 00       	mov    $0x0,%eax
   2c4e6:	eb 23                	jmp    2c50b <gladLoadGLLoader+0x181>
   2c4e8:	8b 05 52 d1 02 00    	mov    0x2d152(%rip),%eax        # 59640 <GLVersion>
   2c4ee:	85 c0                	test   %eax,%eax
   2c4f0:	75 0a                	jne    2c4fc <gladLoadGLLoader+0x172>
   2c4f2:	8b 05 4c d1 02 00    	mov    0x2d14c(%rip),%eax        # 59644 <GLVersion+0x4>
   2c4f8:	85 c0                	test   %eax,%eax
   2c4fa:	74 07                	je     2c503 <gladLoadGLLoader+0x179>
   2c4fc:	b8 01 00 00 00       	mov    $0x1,%eax
   2c501:	eb 05                	jmp    2c508 <gladLoadGLLoader+0x17e>
   2c503:	b8 00 00 00 00       	mov    $0x0,%eax
   2c508:	0f b6 c0             	movzbl %al,%eax
   2c50b:	c9                   	leaveq 
   2c50c:	c3                   	retq   

000000000002c50d <_GLOBAL__sub_D_00099_0_gladLoadGL>:
   2c50d:	55                   	push   %rbp
   2c50e:	48 89 e5             	mov    %rsp,%rbp
   2c511:	be 90 05 00 00       	mov    $0x590,%esi
   2c516:	48 8d 3d a3 69 01 00 	lea    0x169a3(%rip),%rdi        # 42ec0 <_ZZL7open_glvE5NAMES+0x2d60>
   2c51d:	e8 ee ab ff ff       	callq  27110 <__asan_unregister_globals@plt>
   2c522:	5d                   	pop    %rbp
   2c523:	c3                   	retq   

000000000002c524 <_GLOBAL__sub_I_00099_1_gladLoadGL>:
   2c524:	55                   	push   %rbp
   2c525:	48 89 e5             	mov    %rsp,%rbp
   2c528:	e8 03 ac ff ff       	callq  27130 <__asan_init@plt>
   2c52d:	e8 ee ac ff ff       	callq  27220 <__asan_version_mismatch_check_v8@plt>
   2c532:	be 90 05 00 00       	mov    $0x590,%esi
   2c537:	48 8d 3d 82 69 01 00 	lea    0x16982(%rip),%rdi        # 42ec0 <_ZZL7open_glvE5NAMES+0x2d60>
   2c53e:	e8 0d ab ff ff       	callq  27050 <__asan_register_globals@plt>
   2c543:	5d                   	pop    %rbp
   2c544:	c3                   	retq   

000000000002c545 <_Z25framebuffer_size_callbackP10GLFWwindowii>:
   2c545:	55                   	push   %rbp
   2c546:	48 89 e5             	mov    %rsp,%rbp
   2c549:	48 83 ec 10          	sub    $0x10,%rsp
   2c54d:	48 89 7d f8          	mov    %rdi,-0x8(%rbp)
   2c551:	89 75 f4             	mov    %esi,-0xc(%rbp)
   2c554:	89 55 f0             	mov    %edx,-0x10(%rbp)
   2c557:	48 8d 05 62 83 03 00 	lea    0x38362(%rip),%rax        # 648c0 <glad_glViewport>
   2c55e:	48 89 c2             	mov    %rax,%rdx
   2c561:	48 c1 ea 03          	shr    $0x3,%rdx
   2c565:	48 81 c2 00 80 ff 7f 	add    $0x7fff8000,%rdx
   2c56c:	0f b6 12             	movzbl (%rdx),%edx
   2c56f:	84 d2                	test   %dl,%dl
   2c571:	74 08                	je     2c57b <_Z25framebuffer_size_callbackP10GLFWwindowii+0x36>
   2c573:	48 89 c7             	mov    %rax,%rdi
   2c576:	e8 55 ac ff ff       	callq  271d0 <__asan_report_load8@plt>
   2c57b:	48 8b 05 3e 83 03 00 	mov    0x3833e(%rip),%rax        # 648c0 <glad_glViewport>
   2c582:	8b 4d f0             	mov    -0x10(%rbp),%ecx
   2c585:	8b 55 f4             	mov    -0xc(%rbp),%edx
   2c588:	be 00 00 00 00       	mov    $0x0,%esi
   2c58d:	bf 00 00 00 00       	mov    $0x0,%edi
   2c592:	ff d0                	callq  *%rax
   2c594:	90                   	nop
   2c595:	c9                   	leaveq 
   2c596:	c3                   	retq   

000000000002c597 <main>:
   2c597:	55                   	push   %rbp
   2c598:	48 89 e5             	mov    %rsp,%rbp
   2c59b:	48 83 ec 10          	sub    $0x10,%rsp
   2c59f:	e8 ac ab ff ff       	callq  27150 <glfwInit@plt>
   2c5a4:	be 04 00 00 00       	mov    $0x4,%esi
   2c5a9:	bf 02 20 02 00       	mov    $0x22002,%edi
   2c5ae:	e8 fd aa ff ff       	callq  270b0 <glfwWindowHint@plt>
   2c5b3:	be 05 00 00 00       	mov    $0x5,%esi
   2c5b8:	bf 03 20 02 00       	mov    $0x22003,%edi
   2c5bd:	e8 ee aa ff ff       	callq  270b0 <glfwWindowHint@plt>
   2c5c2:	be 01 20 03 00       	mov    $0x32001,%esi
   2c5c7:	bf 08 20 02 00       	mov    $0x22008,%edi
   2c5cc:	e8 df aa ff ff       	callq  270b0 <glfwWindowHint@plt>
   2c5d1:	41 b8 00 00 00 00    	mov    $0x0,%r8d
   2c5d7:	b9 00 00 00 00       	mov    $0x0,%ecx
   2c5dc:	48 8d 15 bd 18 01 00 	lea    0x118bd(%rip),%rdx        # 3dea0 <_IO_stdin_used+0x10ea0>
   2c5e3:	be 58 02 00 00       	mov    $0x258,%esi
   2c5e8:	bf 20 03 00 00       	mov    $0x320,%edi
   2c5ed:	e8 fe ab ff ff       	callq  271f0 <glfwCreateWindow@plt>
   2c5f2:	48 89 45 f8          	mov    %rax,-0x8(%rbp)
   2c5f6:	48 83 7d f8 00       	cmpq   $0x0,-0x8(%rbp)
   2c5fb:	75 32                	jne    2c62f <main+0x98>
   2c5fd:	48 8d 35 dc 18 01 00 	lea    0x118dc(%rip),%rsi        # 3dee0 <_IO_stdin_used+0x10ee0>
   2c604:	48 8d 3d 95 ce 02 00 	lea    0x2ce95(%rip),%rdi        # 594a0 <_ZSt4cerr@@GLIBCXX_3.4>
   2c60b:	e8 c0 aa ff ff       	callq  270d0 <_ZStlsISt11char_traitsIcEERSt13basic_ostreamIcT_ES5_PKc@plt>
   2c610:	48 89 c2             	mov    %rax,%rdx
   2c613:	48 8b 05 b6 39 01 00 	mov    0x139b6(%rip),%rax        # 3ffd0 <_ZSt4endlIcSt11char_traitsIcEERSt13basic_ostreamIT_T0_ES6_@GLIBCXX_3.4>
   2c61a:	48 89 c6             	mov    %rax,%rsi
   2c61d:	48 89 d7             	mov    %rdx,%rdi
   2c620:	e8 db aa ff ff       	callq  27100 <_ZNSolsEPFRSoS_E@plt>
   2c625:	b8 ff ff ff ff       	mov    $0xffffffff,%eax
   2c62a:	e9 dc 00 00 00       	jmpq   2c70b <main+0x174>
   2c62f:	48 8b 45 f8          	mov    -0x8(%rbp),%rax
   2c633:	48 89 c7             	mov    %rax,%rdi
   2c636:	e8 45 aa ff ff       	callq  27080 <glfwMakeContextCurrent@plt>
   2c63b:	48 8b 05 7e 39 01 00 	mov    0x1397e(%rip),%rax        # 3ffc0 <glfwGetProcAddress>
   2c642:	48 89 c7             	mov    %rax,%rdi
   2c645:	e8 40 fd ff ff       	callq  2c38a <gladLoadGLLoader>
   2c64a:	85 c0                	test   %eax,%eax
   2c64c:	0f 94 c0             	sete   %al
   2c64f:	84 c0                	test   %al,%al
   2c651:	74 32                	je     2c685 <main+0xee>
   2c653:	48 8d 35 c6 18 01 00 	lea    0x118c6(%rip),%rsi        # 3df20 <_IO_stdin_used+0x10f20>
   2c65a:	48 8d 3d 3f ce 02 00 	lea    0x2ce3f(%rip),%rdi        # 594a0 <_ZSt4cerr@@GLIBCXX_3.4>
   2c661:	e8 6a aa ff ff       	callq  270d0 <_ZStlsISt11char_traitsIcEERSt13basic_ostreamIcT_ES5_PKc@plt>
   2c666:	48 89 c2             	mov    %rax,%rdx
   2c669:	48 8b 05 60 39 01 00 	mov    0x13960(%rip),%rax        # 3ffd0 <_ZSt4endlIcSt11char_traitsIcEERSt13basic_ostreamIT_T0_ES6_@GLIBCXX_3.4>
   2c670:	48 89 c6             	mov    %rax,%rsi
   2c673:	48 89 d7             	mov    %rdx,%rdi
   2c676:	e8 85 aa ff ff       	callq  27100 <_ZNSolsEPFRSoS_E@plt>
   2c67b:	b8 ff ff ff ff       	mov    $0xffffffff,%eax
   2c680:	e9 86 00 00 00       	jmpq   2c70b <main+0x174>
   2c685:	48 8d 05 34 82 03 00 	lea    0x38234(%rip),%rax        # 648c0 <glad_glViewport>
   2c68c:	48 89 c2             	mov    %rax,%rdx
   2c68f:	48 c1 ea 03          	shr    $0x3,%rdx
   2c693:	48 81 c2 00 80 ff 7f 	add    $0x7fff8000,%rdx
   2c69a:	0f b6 12             	movzbl (%rdx),%edx
   2c69d:	84 d2                	test   %dl,%dl
   2c69f:	74 08                	je     2c6a9 <main+0x112>
   2c6a1:	48 89 c7             	mov    %rax,%rdi
   2c6a4:	e8 27 ab ff ff       	callq  271d0 <__asan_report_load8@plt>
   2c6a9:	48 8b 05 10 82 03 00 	mov    0x38210(%rip),%rax        # 648c0 <glad_glViewport>
   2c6b0:	b9 58 02 00 00       	mov    $0x258,%ecx
   2c6b5:	ba 20 03 00 00       	mov    $0x320,%edx
   2c6ba:	be 00 00 00 00       	mov    $0x0,%esi
   2c6bf:	bf 00 00 00 00       	mov    $0x0,%edi
   2c6c4:	ff d0                	callq  *%rax
   2c6c6:	48 8b 45 f8          	mov    -0x8(%rbp),%rax
   2c6ca:	48 8d 35 74 fe ff ff 	lea    -0x18c(%rip),%rsi        # 2c545 <_Z25framebuffer_size_callbackP10GLFWwindowii>
   2c6d1:	48 89 c7             	mov    %rax,%rdi
   2c6d4:	e8 e7 aa ff ff       	callq  271c0 <glfwSetFramebufferSizeCallback@plt>
   2c6d9:	48 8b 45 f8          	mov    -0x8(%rbp),%rax
   2c6dd:	48 89 c7             	mov    %rax,%rdi
   2c6e0:	e8 6b ab ff ff       	callq  27250 <glfwWindowShouldClose@plt>
   2c6e5:	85 c0                	test   %eax,%eax
   2c6e7:	0f 94 c0             	sete   %al
   2c6ea:	84 c0                	test   %al,%al
   2c6ec:	74 13                	je     2c701 <main+0x16a>
   2c6ee:	48 8b 45 f8          	mov    -0x8(%rbp),%rax
   2c6f2:	48 89 c7             	mov    %rax,%rdi
   2c6f5:	e8 a6 aa ff ff       	callq  271a0 <glfwSwapBuffers@plt>
   2c6fa:	e8 c1 a9 ff ff       	callq  270c0 <glfwPollEvents@plt>
   2c6ff:	eb d8                	jmp    2c6d9 <main+0x142>
   2c701:	e8 da a9 ff ff       	callq  270e0 <glfwTerminate@plt>
   2c706:	b8 00 00 00 00       	mov    $0x0,%eax
   2c70b:	c9                   	leaveq 
   2c70c:	c3                   	retq   

000000000002c70d <_Z41__static_initialization_and_destruction_0ii>:
   2c70d:	55                   	push   %rbp
   2c70e:	48 89 e5             	mov    %rsp,%rbp
   2c711:	48 83 ec 10          	sub    $0x10,%rsp
   2c715:	89 7d fc             	mov    %edi,-0x4(%rbp)
   2c718:	89 75 f8             	mov    %esi,-0x8(%rbp)
   2c71b:	83 7d fc 01          	cmpl   $0x1,-0x4(%rbp)
   2c71f:	75 43                	jne    2c764 <_Z41__static_initialization_and_destruction_0ii+0x57>
   2c721:	48 8d 3d 38 18 01 00 	lea    0x11838(%rip),%rdi        # 3df60 <_IO_stdin_used+0x10f60>
   2c728:	e8 33 ab ff ff       	callq  27260 <__asan_before_dynamic_init@plt>
   2c72d:	81 7d f8 ff ff 00 00 	cmpl   $0xffff,-0x8(%rbp)
   2c734:	75 29                	jne    2c75f <_Z41__static_initialization_and_destruction_0ii+0x52>
   2c736:	48 8d 3d a3 85 03 00 	lea    0x385a3(%rip),%rdi        # 64ce0 <_ZStL8__ioinit>
   2c73d:	e8 9e aa ff ff       	callq  271e0 <_ZNSt8ios_base4InitC1Ev@plt>
   2c742:	48 8d 15 ff 39 01 00 	lea    0x139ff(%rip),%rdx        # 40148 <__dso_handle>
   2c749:	48 8d 35 90 85 03 00 	lea    0x38590(%rip),%rsi        # 64ce0 <_ZStL8__ioinit>
   2c750:	48 8b 05 a1 38 01 00 	mov    0x138a1(%rip),%rax        # 3fff8 <_ZNSt8ios_base4InitD1Ev@GLIBCXX_3.4>
   2c757:	48 89 c7             	mov    %rax,%rdi
   2c75a:	e8 01 aa ff ff       	callq  27160 <__cxa_atexit@plt>
   2c75f:	e8 2c aa ff ff       	callq  27190 <__asan_after_dynamic_init@plt>
   2c764:	90                   	nop
   2c765:	c9                   	leaveq 
   2c766:	c3                   	retq   

000000000002c767 <_GLOBAL__sub_I_vertices>:
   2c767:	55                   	push   %rbp
   2c768:	48 89 e5             	mov    %rsp,%rbp
   2c76b:	be ff ff 00 00       	mov    $0xffff,%esi
   2c770:	bf 01 00 00 00       	mov    $0x1,%edi
   2c775:	e8 93 ff ff ff       	callq  2c70d <_Z41__static_initialization_and_destruction_0ii>
   2c77a:	5d                   	pop    %rbp
   2c77b:	c3                   	retq   

000000000002c77c <_GLOBAL__sub_D_00099_0_vertices>:
   2c77c:	55                   	push   %rbp
   2c77d:	48 89 e5             	mov    %rsp,%rbp
   2c780:	be 05 00 00 00       	mov    $0x5,%esi
   2c785:	48 8d 3d b4 cb 02 00 	lea    0x2cbb4(%rip),%rdi        # 59340 <vertices+0x80>
   2c78c:	e8 7f a9 ff ff       	callq  27110 <__asan_unregister_globals@plt>
   2c791:	5d                   	pop    %rbp
   2c792:	c3                   	retq   

000000000002c793 <_GLOBAL__sub_I_00099_1_vertices>:
   2c793:	55                   	push   %rbp
   2c794:	48 89 e5             	mov    %rsp,%rbp
   2c797:	e8 94 a9 ff ff       	callq  27130 <__asan_init@plt>
   2c79c:	e8 7f aa ff ff       	callq  27220 <__asan_version_mismatch_check_v8@plt>
   2c7a1:	be 05 00 00 00       	mov    $0x5,%esi
   2c7a6:	48 8d 3d 93 cb 02 00 	lea    0x2cb93(%rip),%rdi        # 59340 <vertices+0x80>
   2c7ad:	e8 9e a8 ff ff       	callq  27050 <__asan_register_globals@plt>
   2c7b2:	5d                   	pop    %rbp
   2c7b3:	c3                   	retq   
   2c7b4:	66 2e 0f 1f 84 00 00 	nopw   %cs:0x0(%rax,%rax,1)
   2c7bb:	00 00 00 
   2c7be:	66 90                	xchg   %ax,%ax

000000000002c7c0 <__libc_csu_init>:
   2c7c0:	f3 0f 1e fa          	endbr64 
   2c7c4:	41 57                	push   %r15
   2c7c6:	49 89 d7             	mov    %rdx,%r15
   2c7c9:	41 56                	push   %r14
   2c7cb:	49 89 f6             	mov    %rsi,%r14
   2c7ce:	41 55                	push   %r13
   2c7d0:	41 89 fd             	mov    %edi,%r13d
   2c7d3:	41 54                	push   %r12
   2c7d5:	4c 8d 25 fc 34 01 00 	lea    0x134fc(%rip),%r12        # 3fcd8 <__init_array_start>
   2c7dc:	55                   	push   %rbp
   2c7dd:	48 8d 2d 14 35 01 00 	lea    0x13514(%rip),%rbp        # 3fcf8 <__init_array_end>
   2c7e4:	53                   	push   %rbx
   2c7e5:	4c 29 e5             	sub    %r12,%rbp
   2c7e8:	48 83 ec 08          	sub    $0x8,%rsp
   2c7ec:	67 e8 0e a8 ff ff    	addr32 callq 27000 <_init>
   2c7f2:	48 c1 fd 03          	sar    $0x3,%rbp
   2c7f6:	74 1e                	je     2c816 <__libc_csu_init+0x56>
   2c7f8:	31 db                	xor    %ebx,%ebx
   2c7fa:	66 0f 1f 44 00 00    	nopw   0x0(%rax,%rax,1)
   2c800:	4c 89 fa             	mov    %r15,%rdx
   2c803:	4c 89 f6             	mov    %r14,%rsi
   2c806:	44 89 ef             	mov    %r13d,%edi
   2c809:	41 ff 14 dc          	callq  *(%r12,%rbx,8)
   2c80d:	48 83 c3 01          	add    $0x1,%rbx
   2c811:	48 39 dd             	cmp    %rbx,%rbp
   2c814:	75 ea                	jne    2c800 <__libc_csu_init+0x40>
   2c816:	48 83 c4 08          	add    $0x8,%rsp
   2c81a:	5b                   	pop    %rbx
   2c81b:	5d                   	pop    %rbp
   2c81c:	41 5c                	pop    %r12
   2c81e:	41 5d                	pop    %r13
   2c820:	41 5e                	pop    %r14
   2c822:	41 5f                	pop    %r15
   2c824:	c3                   	retq   
   2c825:	66 66 2e 0f 1f 84 00 	data16 nopw %cs:0x0(%rax,%rax,1)
   2c82c:	00 00 00 00 

000000000002c830 <__libc_csu_fini>:
   2c830:	f3 0f 1e fa          	endbr64 
   2c834:	c3                   	retq   

Disassembly of section .fini:

000000000002c838 <_fini>:
   2c838:	f3 0f 1e fa          	endbr64 
   2c83c:	48 83 ec 08          	sub    $0x8,%rsp
   2c840:	48 83 c4 08          	add    $0x8,%rsp
   2c844:	c3                   	retq   
